 SimuEngine

 Timestamp is 53844595 (Tue May 27 15:58:13 2014)

 Preferred load address is 00400000

 Start         Length     Name                   Class
 0001:00000000 0002c862H .text                   CODE
 0002:00000000 00004674H .rdata                  DATA
 0002:00004674 00000000H .edata                  DATA
 0003:00000000 00000004H .CRT$XCA                DATA
 0003:00000004 00000004H .CRT$XCZ                DATA
 0003:00000008 00000004H .CRT$XIA                DATA
 0003:0000000c 00000004H .CRT$XIZ                DATA
 0003:00000010 00001424H .data                   DATA
 0003:00001438 1c557514H .bss                    DATA
 0004:00000000 00000050H .idata$2                DATA
 0004:00000050 00000014H .idata$3                DATA
 0004:00000064 00000160H .idata$4                DATA
 0004:000001c4 00000160H .idata$5                DATA
 0004:00000324 0000043aH .idata$6                DATA

  Address         Publics by Value              Rva+Base     Lib:Object

 0001:00000000       _GetFloatFromCommand       00401000 f   get_coded_cmd.obj
 0001:00000020       _GetIO_NameString          00401020 f   get_coded_cmd.obj
 0001:00000050       _GetIO_PtrByName           00401050 f   get_coded_cmd.obj
 0001:000000b0       _GetRtuNameByID            004010b0 f   get_coded_cmd.obj
 0001:00000110       _GetDBNameByID             00401110 f   get_coded_cmd.obj
 0001:00000140       _GetInfoFromCMD            00401140 f   get_coded_cmd.obj
 0001:000002c0       _FormCmdTest               004012c0 f   get_coded_cmd.obj
 0001:00000310       _CheckCmdBuffer            00401310 f   get_coded_cmd.obj
 0001:000004f0       _GetSeqNameFromID          004014f0 f   get_coded_cmd.obj
 0001:000006e0       _OtsCmdProc                004016e0 f   get_coded_cmd.obj
 0001:00000d50       _GetInterpolationIndex     00401d50 f   interpolation.obj
 0001:00000de0       _GetInterpolationFactor    00401de0 f   interpolation.obj
 0001:00000e90       _BiInterpolation           00401e90 f   interpolation.obj
 0001:00000f20       _TriInterpolation          00401f20 f   interpolation.obj
 0001:00001020       _GetNLF_IdByName           00402020 f   model_proc.obj
 0001:000010a0       _PreInsensitiveTFB         004020a0 f   model_proc.obj
 0001:00001150       _PreSaturedTFB             00402150 f   model_proc.obj
 0001:00001200       _PreGearGapTFB             00402200 f   model_proc.obj
 0001:00001460       _PreRelayTFB               00402460 f   model_proc.obj
 0001:00001510       _PreInsensitiveRelayTFB    00402510 f   model_proc.obj
 0001:000015b0       _PreInertieRelayTFB        004025b0 f   model_proc.obj
 0001:000017f0       _PreNonlinearTFB           004027f0 f   model_proc.obj
 0001:000019f0       _PreNonLinearityProc       004029f0 f   model_proc.obj
 0001:00001bb0       _PostNonLinearityProc      00402bb0 f   model_proc.obj
 0001:00001cb0       _WriteModelOutput          00402cb0 f   model_proc.obj
 0001:00001d30       _GetTFB_Coef               00402d30 f   model_proc.obj
 0001:00002530       _GetTFB_RealTimeData       00403530 f   model_proc.obj
 0001:000028a0       _GetTFB_Output             004038a0 f   model_proc.obj
 0001:00002bb0       _GetTFB_Input              00403bb0 f   model_proc.obj
 0001:00002cc0       _GetModelIdByName          00403cc0 f   model_proc.obj
 0001:00002d40       _ActivateModelByID         00403d40 f   model_proc.obj
 0001:00002f90       _StopModelByID             00403f90 f   model_proc.obj
 0001:00002ff0       _ExecuteModelById          00403ff0 f   model_proc.obj
 0001:00003080       _ActivateModelByName       00404080 f   model_proc.obj
 0001:000030d0       _StopModelByName           004040d0 f   model_proc.obj
 0001:00003110       _LAN_ReadPtrInit           00404110 f   read_recv_buf.obj
 0001:00003140       _ReadCMD_FromNetcmdBuf     00404140 f   read_recv_buf.obj
 0001:00003280       _main                      00404280 f   SimuEngine.obj
 0001:000033e0       _ChildThread               004043e0 f   SimuEngine.obj
 0001:000035b0       _CheckOneIntCondition      004045b0 f   SimuEngine.obj
 0001:00003600       _CheckOneAnaCondition      00404600 f   SimuEngine.obj
 0001:00003700       _GetSceneIdByName          00404700 f   SimuEngine.obj
 0001:00003780       _DoSetScene                00404780 f   SimuEngine.obj
 0001:000039b0       _GetParamSeqFvalue         004049b0 f   SimuEngine.obj
 0001:00003a30       _GoOneStep                 00404a30 f   SimuEngine.obj
 0001:00004b50       _SequenceFileFree          00405b50 f   SimuEngine.obj
 0001:00004ba0       _SequenceInitialize        00405ba0 f   SimuEngine.obj
 0001:00004ce0       _ActivateSequenceById      00405ce0 f   SimuEngine.obj
 0001:00004e90       _StopSequenceById          00405e90 f   SimuEngine.obj
 0001:00004f10       _ExecuteSequenceById       00405f10 f   SimuEngine.obj
 0001:00005210       _StopSequenceByName        00406210 f   SimuEngine.obj
 0001:00005270       _ActivateSequenceByName    00406270 f   SimuEngine.obj
 0001:00005300       _ResetTimeCount            00406300 f   SimuEngine.obj
 0001:00005330       _ThreadMdl                 00406330 f   SimuEngine.obj
 0001:000054c0       _ThreadSeqLogical          004064c0 f   SimuEngine.obj
 0001:000055d0       _ThreadSeq                 004065d0 f   SimuEngine.obj
 0001:00005940       _ActiveAutoSeq             00406940 f   SimuEngine.obj
 0001:000059b0       _StopSimulog               004069b0 f   SimuEngine.obj
 0001:00005a20       _BdFZTimes                 00406a20 f   SimuEngine.obj
 0001:00005a40       _DoDataCalculation         00406a40 f   SimuEngine.obj
 0001:00005ec0       _SetTimerByID              00406ec0 f   timer_task.obj
 0001:00005f60       _ActivateTimedTask         00406f60 f   timer_task.obj
 0001:00006010       _GetEmsConfig              00407010 f   lan:commonlib.obj
 0001:00006810       _ClearCommShm              00407810 f   lan:commonlib.obj
 0001:00006940       _ReadAppDefFile            00407940 f   lan:commonlib.obj
 0001:00006d10       _MySleep                   00407d10 f   lan:commonlib.obj
 0001:00006d30       _GetSrcId                  00407d30 f   lan:commonlib.obj
 0001:00006d70       _GetPlcTypeStr             00407d70 f   lan:commonlib.obj
 0001:00006db0       _GetCmdBufId               00407db0 f   lan:commonlib.obj
 0001:00006de0       _rdb_net                   00407de0 f   lan:commonlib.obj
 0001:00006f50       _rdb_cpu                   00407f50 f   lan:commonlib.obj
 0001:000070b0       _WriteIndDBByStr           004080b0 f   lan:commonlib.obj
 0001:00007210       _BdcastMsg                 00408210 f   lan:commonlib.obj
 0001:00007360       _GetPtQlt                  00408360 f   lan:commonlib.obj
 0001:000073d0       _BdcastQltWithSta          004083d0 f   lan:commonlib.obj
 0001:000076a0       _BdcastQltANA              004086a0 f   lan:commonlib.obj
 0001:00007850       _BdcastQlt                 00408850 f   lan:commonlib.obj
 0001:00007b90       _BdcastQltObj              00408b90 f   lan:commonlib.obj
 0001:00007e60       _BdObjByID                 00408e60 f   lan:commonlib.obj
 0001:00008100       _BdINDByID                 00409100 f   lan:commonlib.obj
 0001:000082e0       _BdObjForceByID            004092e0 f   lan:commonlib.obj
 0001:00008590       _WrANA                     00409590 f   lan:commonlib.obj
 0001:00008680       _WrIND                     00409680 f   lan:commonlib.obj
 0001:00008870       _BdANAByID                 00409870 f   lan:commonlib.obj
 0001:00009110       _BdINDByName               0040a110 f   lan:commonlib.obj
 0001:00009190       _BdANAByName               0040a190 f   lan:commonlib.obj
 0001:00009210       _NetSwitchCmd              0040a210 f   lan:commonlib.obj
 0001:000093b0       _BdNetHost                 0040a3b0 f   lan:commonlib.obj
 0001:000094b0       _BdCpuHost                 0040a4b0 f   lan:commonlib.obj
 0001:000095b0       _BdCmdSendResult           0040a5b0 f   lan:commonlib.obj
 0001:00009600       _BdLCUONOFFStat            0040a600 f   lan:commonlib.obj
 0001:00009740       _GetLCUONOFFStat           0040a740 f   lan:commonlib.obj
 0001:00009850       _BdPlcLinkStat             0040a850 f   lan:commonlib.obj
 0001:00009990       _GetPlcLinkStat            0040a990 f   lan:commonlib.obj
 0001:00009aa0       _BdPlcScanStat             0040aaa0 f   lan:commonlib.obj
 0001:00009be0       _GetPlcScanStat            0040abe0 f   lan:commonlib.obj
 0001:00009cf0       _BdScanHost                0040acf0 f   lan:commonlib.obj
 0001:00009ea0       _GetScanHost               0040aea0 f   lan:commonlib.obj
 0001:00009fb0       _BdLCUONOFFStatQlt         0040afb0 f   lan:commonlib.obj
 0001:0000a0b0       _BdPlcLinkStatQlt          0040b0b0 f   lan:commonlib.obj
 0001:0000a1b0       _BdPlcScanStatQlt          0040b1b0 f   lan:commonlib.obj
 0001:0000a2b0       _BdScanHostQlt             0040b2b0 f   lan:commonlib.obj
 0001:0000a3b0       _BdCpuWkQlt                0040b3b0 f   lan:commonlib.obj
 0001:0000a520       _BdCpuStatQlt              0040b520 f   lan:commonlib.obj
 0001:0000a610       _BdNetWkQlt                0040b610 f   lan:commonlib.obj
 0001:0000a700       _WriteScanHost             0040b700 f   lan:commonlib.obj
 0001:0000a8b0       _BdPlcMonHost              0040b8b0 f   lan:commonlib.obj
 0001:0000aa70       _BdHdbStat                 0040ba70 f   lan:commonlib.obj
 0001:0000abd0       _BdSms                     0040bbd0 f   lan:commonlib.obj
 0001:0000acd0       _BdLms                     0040bcd0 f   lan:commonlib.obj
 0001:0000adb0       _sig_term                  0040bdb0 f   lan:commonlib.obj
 0001:0000ade0       _GetTimeString             0040bde0 f   lan:commonlib.obj
 0001:0000af00       _GetIPCConf                0040bf00 f   lan:commonlib.obj
 0001:0000b1f0       _GetIdByHostname           0040c1f0 f   lan:commonlib.obj
 0001:0000b2a0       _SetLogLevel               0040c2a0 f   lan:commonlib.obj
 0001:0000b330       _wsa_startup               0040c330 f   lan:lanlib.obj
 0001:0000b380       _lan_init_all              0040c380 f   lan:lanlib.obj
 0001:0000b450       _lan_out_init              0040c450 f   lan:lanlib.obj
 0001:0000b500       _lan_finish                0040c500 f   lan:lanlib.obj
 0001:0000b510       _lan_out                   0040c510 f   lan:lanlib.obj
 0001:0000b9b0       _InitPlcDataShm            0040c9b0 f   lan:lanlib.obj
 0001:0000bce0       _get_lan_shm               0040cce0 f   lan:lanlib.obj
 0001:0000bfa0       _get_lcu_shm               0040cfa0 f   lan:lanlib.obj
 0001:0000c1c0       _get_rec_shm               0040d1c0 f   lan:lanlib.obj
 0001:0000c270       _get_iccp_data_shm         0040d270 f   lan:lanlib.obj
 0001:0000c290       _get_hdb_shm               0040d290 f   lan:lanlib.obj
 0001:0000c340       _get_ots_shm               0040d340 f   lan:lanlib.obj
 0001:0000c3f0       _CreateShm                 0040d3f0 f   lan:lanlib.obj
 0001:0000c450       _GetDBName                 0040d450 f   ipclib:ReadDatabase.obj
 0001:0000c490       _GetDBLongname             0040d490 f   ipclib:ReadDatabase.obj
 0001:0000c4d0       _GetDBVersion              0040d4d0 f   ipclib:ReadDatabase.obj
 0001:0000c510       _GetStationNum             0040d510 f   ipclib:ReadDatabase.obj
 0001:0000c540       _GetStnIdByIndex           0040d540 f   ipclib:ReadDatabase.obj
 0001:0000c5d0       _GetStnIndexById           0040d5d0 f   ipclib:ReadDatabase.obj
 0001:0000c690       _GetStnNameById            0040d690 f   ipclib:ReadDatabase.obj
 0001:0000c7b0       _GetStnLongnameById        0040d7b0 f   ipclib:ReadDatabase.obj
 0001:0000c810       _GetStnCommentById         0040d810 f   ipclib:ReadDatabase.obj
 0001:0000c870       _GetStnIdByName            0040d870 f   ipclib:ReadDatabase.obj
 0001:0000c980       _GetStnTypeById            0040d980 f   ipclib:ReadDatabase.obj
 0001:0000c9d0       _GetStnSysLcuIdById        0040d9d0 f   ipclib:ReadDatabase.obj
 0001:0000ca20       _GetGroupNumById           0040da20 f   ipclib:ReadDatabase.obj
 0001:0000ca70       _GetGroupNameById          0040da70 f   ipclib:ReadDatabase.obj
 0001:0000cb90       _GetGroupLongnameById      0040db90 f   ipclib:ReadDatabase.obj
 0001:0000ccb0       _GetGroupCommentById       0040dcb0 f   ipclib:ReadDatabase.obj
 0001:0000ce00       _GetGroupIdByName          0040de00 f   ipclib:ReadDatabase.obj
 0001:0000cf60       _GetGroupTypeNameById      0040df60 f   ipclib:ReadDatabase.obj
 0001:0000d050       _GetGroupSysLcuFlagById    0040e050 f   ipclib:ReadDatabase.obj
 0001:0000d170       _GetLcuIoGroupCommentById  0040e170 f   ipclib:ReadDatabase.obj
 0001:0000d340       _GetLcuIoGroupNumById      0040e340 f   ipclib:ReadDatabase.obj
 0001:0000d430       _GetLcuIoGroupInfoByIndex  0040e430 f   ipclib:ReadDatabase.obj
 0001:0000d5b0       _GetLcuIoGroupInfoById     0040e5b0 f   ipclib:ReadDatabase.obj
 0001:0000d780       _SetLcuIoGroupStatusById   0040e780 f   ipclib:ReadDatabase.obj
 0001:0000d940       _GetRecordNumById          0040e940 f   ipclib:ReadDatabase.obj
 0001:0000da60       _GetRecNameByType          0040ea60 f   ipclib:ReadDatabase.obj
 0001:0000db00       _GetRecLongnameByType      0040eb00 f   ipclib:ReadDatabase.obj
 0001:0000dba0       _GetRecTypeByName          0040eba0 f   ipclib:ReadDatabase.obj
 0001:0000dc40       _GetEntryNumById           0040ec40 f   ipclib:ReadDatabase.obj
 0001:0000de40       _GetRecTypeByOffset        0040ee40 f   ipclib:ReadDatabase.obj
 0001:0000e010       _GetEntryNumByRecOffset    0040f010 f   ipclib:ReadDatabase.obj
 0001:0000e080       _IsPointExist              0040f080 f   ipclib:ReadDatabase.obj
 0001:0000e1d0       _GetPtIdByNameStr          0040f1d0 f   ipclib:ReadDatabase.obj
 0001:0000e690       _GetCommonPtrById          0040f690 f   ipclib:ReadDatabase.obj
 0001:0000e920       _GetCommonPtrByNameStr     0040f920 f   ipclib:ReadDatabase.obj
 0001:0000f030       _GetEntryIdByName          00410030 f   ipclib:ReadDatabase.obj
 0001:0000f250       _ReadEntryById             00410250 f   ipclib:ReadDatabase.obj
 0001:0000fb20       _ReadEntryByNameStr        00410b20 f   ipclib:ReadDatabase.obj
 0001:00010870       _GetEntryNameById          00411870 f   ipclib:ReadPoint.obj
 0001:000108d0       _GetEntryLongnameById      004118d0 f   ipclib:ReadPoint.obj
 0001:00010930       _GetEntryLongnameByNameStr 00411930 f   ipclib:ReadPoint.obj
 0001:00010990       _GetPtNameById             00411990 f   ipclib:ReadPoint.obj
 0001:00010a70       _GetPtLongnameById         00411a70 f   ipclib:ReadPoint.obj
 0001:00010b40       _GetPtLongnameByNameStr    00411b40 f   ipclib:ReadPoint.obj
 0001:00010c30       _GetPtCmdMsgSelById        00411c30 f   ipclib:ReadPoint.obj
 0001:00010c90       _GetPtCmdMsgSelByNameStr   00411c90 f   ipclib:ReadPoint.obj
 0001:00010cf0       _GetPtAlmMsgSelById        00411cf0 f   ipclib:ReadPoint.obj
 0001:00010d50       _GetPtAlmMsgSelByNameStr   00411d50 f   ipclib:ReadPoint.obj
 0001:00010db0       _GetPtHardAddrById         00411db0 f   ipclib:ReadPoint.obj
 0001:00010e10       _GetPtHardAddrByNameStr    00411e10 f   ipclib:ReadPoint.obj
 0001:00010e70       _GetPtCtrlAddrById         00411e70 f   ipclib:ReadPoint.obj
 0001:00010ed0       _GetPtCtrlAddrByNameStr    00411ed0 f   ipclib:ReadPoint.obj
 0001:00010f30       _GetPtUpdateSrcById        00411f30 f   ipclib:ReadPoint.obj
 0001:00010f90       _GetPtUpdateSrcByNameStr   00411f90 f   ipclib:ReadPoint.obj
 0001:00010ff0       _GetPtIoGroupById          00411ff0 f   ipclib:ReadPoint.obj
 0001:00011050       _GetPtIoGroupByNameStr     00412050 f   ipclib:ReadPoint.obj
 0001:000110b0       _GetPtIoGroupCommentById   004120b0 f   ipclib:ReadPoint.obj
 0001:000111a0       _GetPtIoGroupCommentByNameStr 004121a0 f   ipclib:ReadPoint.obj
 0001:00011200       _GetPtIoGroupStatusById    00412200 f   ipclib:ReadPoint.obj
 0001:000112f0       _GetPtIoGroupStatusByNameStr 004122f0 f   ipclib:ReadPoint.obj
 0001:00011350       _GetPtDspFileNameById      00412350 f   ipclib:ReadPoint.obj
 0001:000113b0       _GetPtDspFileNameByNameStr 004123b0 f   ipclib:ReadPoint.obj
 0001:00011410       _GetPairPtById             00412410 f   ipclib:ReadPoint.obj
 0001:000114a0       _GetPairPtByNameStr        004124a0 f   ipclib:ReadPoint.obj
 0001:00011530       _GetPtUpdateTimeById       00412530 f   ipclib:ReadPoint.obj
 0001:000116c0       _GetPtUpdateTimeByNameStr  004126c0 f   ipclib:ReadPoint.obj
 0001:00011850       _IsPtValueManSetById       00412850 f   ipclib:ReadPoint.obj
 0001:00011990       _IsPtValueManSetByNameStr  00412990 f   ipclib:ReadPoint.obj
 0001:00011ad0       _IsPtValueChanFailById     00412ad0 f   ipclib:ReadPoint.obj
 0001:00011be0       _IsPtValueChanFailByNameStr 00412be0 f   ipclib:ReadPoint.obj
 0001:00011cf0       _GetPtViewPointById        00412cf0 f   ipclib:ReadPoint.obj
 0001:00011d60       _GetPtViewPointByNameStr   00412d60 f   ipclib:ReadPoint.obj
 0001:00011dd0       _IsPtScanEnableById        00412dd0 f   ipclib:ReadPoint.obj
 0001:00011e40       _IsPtScanEnableByNameStr   00412e40 f   ipclib:ReadPoint.obj
 0001:00011eb0       _IsPtAlmEnableById         00412eb0 f   ipclib:ReadPoint.obj
 0001:00011f20       _IsPtAlmEnableByNameStr    00412f20 f   ipclib:ReadPoint.obj
 0001:00011f90       _IsPtAlmNotAckedById       00412f90 f   ipclib:ReadPoint.obj
 0001:00012000       _IsPtAlmNotAckedByNameStr  00413000 f   ipclib:ReadPoint.obj
 0001:00012070       _IsPtCtrlLockedById        00413070 f   ipclib:ReadPoint.obj
 0001:000120e0       _IsPtCtrlLockedByNameStr   004130e0 f   ipclib:ReadPoint.obj
 0001:00012150       _IsPtNoUpdateById          00413150 f   ipclib:ReadPoint.obj
 0001:000121c0       _IsPtNoUpdateByNameStr     004131c0 f   ipclib:ReadPoint.obj
 0001:00012230       _IsPtAlmRepeatById         00413230 f   ipclib:ReadPoint.obj
 0001:000122a0       _IsPtAlmRepeatByNameStr    004132a0 f   ipclib:ReadPoint.obj
 0001:00012310       _GetPtTagStateById         00413310 f   ipclib:ReadPoint.obj
 0001:00012380       _GetPtTagStateByNameStr    00413380 f   ipclib:ReadPoint.obj
 0001:000123f0       _GetPtProcTypeById         004133f0 f   ipclib:ReadPoint.obj
 0001:000124c0       _GetPtProcTypeByNameStr    004134c0 f   ipclib:ReadPoint.obj
 0001:000125a0       _IsPtAlmCbaById            004135a0 f   ipclib:ReadPoint.obj
 0001:00012600       _IsPtAlmCbaByNameStr       00413600 f   ipclib:ReadPoint.obj
 0001:00012660       _IsPtStatisticById         00413660 f   ipclib:ReadPoint.obj
 0001:000126c0       _IsPtStatisticByNameStr    004136c0 f   ipclib:ReadPoint.obj
 0001:00012720       _IsPtFaultById             00413720 f   ipclib:ReadPoint.obj
 0001:00012780       _IsPtFaultByNameStr        00413780 f   ipclib:ReadPoint.obj
 0001:000127e0       _IsPtFailById              004137e0 f   ipclib:ReadPoint.obj
 0001:00012840       _IsPtFailByNameStrd        00413840 f   ipclib:ReadPoint.obj
 0001:000128a0       _IsPtCtrlById              004138a0 f   ipclib:ReadPoint.obj
 0001:00012900       _IsPtCtrlByNameStr         00413900 f   ipclib:ReadPoint.obj
 0001:00012960       _IsPtSoeById               00413960 f   ipclib:ReadPoint.obj
 0001:000129c0       _IsPtSoeByNameStr          004139c0 f   ipclib:ReadPoint.obj
 0001:00012a20       _IsPtTrendAlmById          00413a20 f   ipclib:ReadPoint.obj
 0001:00012a80       _IsPtTrendAlmByNameStr     00413a80 f   ipclib:ReadPoint.obj
 0001:00012ae0       _IsPtKeySignalById         00413ae0 f   ipclib:ReadPoint.obj
 0001:00012b40       _IsPtKeySignalByNameStr    00413b40 f   ipclib:ReadPoint.obj
 0001:00012ba0       _IsPtFaultRecById          00413ba0 f   ipclib:ReadPoint.obj
 0001:00012c00       _IsPtFaultRecByNameStr     00413c00 f   ipclib:ReadPoint.obj
 0001:00012c60       _IsPtAudAlmById            00413c60 f   ipclib:ReadPoint.obj
 0001:00012cc0       _IsPtAudAlmByNameStr       00413cc0 f   ipclib:ReadPoint.obj
 0001:00012d20       _IsPtNormalCloseById       00413d20 f   ipclib:ReadPoint.obj
 0001:00012d80       _IsPtNormalCloseByNameStr  00413d80 f   ipclib:ReadPoint.obj
 0001:00012de0       _IsPtDoublePointById       00413de0 f   ipclib:ReadPoint.obj
 0001:00012e40       _IsPtDoublePointByNameStr  00413e40 f   ipclib:ReadPoint.obj
 0001:00012ea0       _IsPtSysVirtualById        00413ea0 f   ipclib:ReadPoint.obj
 0001:00012f00       _IsPtSysVirtualByNameStr   00413f00 f   ipclib:ReadPoint.obj
 0001:00012f60       _IsPtOnAlmById             00413f60 f   ipclib:ReadPoint.obj
 0001:00012fc0       _IsPtOnAlmByNameStr        00413fc0 f   ipclib:ReadPoint.obj
 0001:00013020       _IsPtOffAlmById            00414020 f   ipclib:ReadPoint.obj
 0001:00013080       _IsPtOffAlmByNameStr       00414080 f   ipclib:ReadPoint.obj
 0001:000130e0       _GetPtNormalStateById      004140e0 f   ipclib:ReadPoint.obj
 0001:00013140       _GetPtNormalStateByNameStr 00414140 f   ipclib:ReadPoint.obj
 0001:000131a0       _IsPtLcuVirtualById        004141a0 f   ipclib:ReadPoint.obj
 0001:00013200       _IsPtLcuVirtualByNameStr   00414200 f   ipclib:ReadPoint.obj
 0001:00013260       _IsPtCascadeById           00414260 f   ipclib:ReadPoint.obj
 0001:000132c0       _IsPtCascadeByNameStr      004142c0 f   ipclib:ReadPoint.obj
 0001:00013320       _IsPtHdbRecordById         00414320 f   ipclib:ReadPoint.obj
 0001:00013380       _IsPtHdbRecordByNameStr    00414380 f   ipclib:ReadPoint.obj
 0001:000133e0       _IsPtHdbCurveById          004143e0 f   ipclib:ReadPoint.obj
 0001:00013440       _IsPtHdbCurveByNameStr     00414440 f   ipclib:ReadPoint.obj
 0001:000134a0       _GetPtHdbPeriodById        004144a0 f   ipclib:ReadPoint.obj
 0001:00013500       _GetPtHdbPeriodByNameStr   00414500 f   ipclib:ReadPoint.obj
 0001:00013560       _GetAnaPtValueById         00414560 f   ipclib:ReadPoint.obj
 0001:00013630       _GetAnaPtValueByNameStr    00414630 f   ipclib:ReadPoint.obj
 0001:00013700       _GetAnaPtfValueById        00414700 f   ipclib:ReadPoint.obj
 0001:000137c0       _GetAnaPtfValueByNameStr   004147c0 f   ipclib:ReadPoint.obj
 0001:00013890       _GetAnaPtLmtStateById      00414890 f   ipclib:ReadPoint.obj
 0001:00013970       _GetAnaPtLmtStateByNameStr 00414970 f   ipclib:ReadPoint.obj
 0001:00013a50       _GetAnaPtTrendStateById    00414a50 f   ipclib:ReadPoint.obj
 0001:00013b30       _GetAnaPtTrendStateByNameStr 00414b30 f   ipclib:ReadPoint.obj
 0001:00013c10       _GetAnaPtCtrlblockStateById 00414c10 f   ipclib:ReadPoint.obj
 0001:00013cf0       _GetAnaPtCtrlBlockStateByNameStr 00414cf0 f   ipclib:ReadPoint.obj
 0001:00013dd0       _GetAnaPtOverflowStateById 00414dd0 f   ipclib:ReadPoint.obj
 0001:00013eb0       _GetAnaPtOverflowStateByNameStr 00414eb0 f   ipclib:ReadPoint.obj
 0001:00013f90       _GetAnaPtUnitNameById      00414f90 f   ipclib:ReadPoint.obj
 0001:00014060       _GetAnaPtUnitNameByNameStr 00415060 f   ipclib:ReadPoint.obj
 0001:00014130       _GetAnaPtEngLmtParaById    00415130 f   ipclib:ReadPoint.obj
 0001:00014210       _GetAnaPtEngLmtParaByNameStr 00415210 f   ipclib:ReadPoint.obj
 0001:00014300       _GetImpPtRtValueById       00415300 f   ipclib:ReadPoint.obj
 0001:000143a0       _GetImpPtRtValueByNameStr  004153a0 f   ipclib:ReadPoint.obj
 0001:00014440       _GetImpPtBaseValueById     00415440 f   ipclib:ReadPoint.obj
 0001:000144e0       _GetImpPtBaseValueByNameStr 004154e0 f   ipclib:ReadPoint.obj
 0001:00014580       _GetImpPtDaccumById        00415580 f   ipclib:ReadPoint.obj
 0001:00014620       _GetImpPtDaccumByNameStr   00415620 f   ipclib:ReadPoint.obj
 0001:000146c0       _GetImpPtEngParaById       004156c0 f   ipclib:ReadPoint.obj
 0001:00014760       _GetImpPtEngParaByNameStr  00415760 f   ipclib:ReadPoint.obj
 0001:00014800       _GetImpPtStatisticUnitNameById 00415800 f   ipclib:ReadPoint.obj
 0001:00014a60       _GetImpPtStatisticUnitNameByNameStr 00415a60 f   ipclib:ReadPoint.obj
 0001:00014cc0       _GetImpPtDataById          00415cc0 f   ipclib:ReadPoint.obj
 0001:00014e60       _GetImpPtDataByNameStr     00415e60 f   ipclib:ReadPoint.obj
 0001:00015000       _GetImpPtFloatDataById     00416000 f   ipclib:ReadPoint.obj
 0001:00015280       _GetImpPtFloatDataByNameStr 00416280 f   ipclib:ReadPoint.obj
 0001:00015500       _GetIndPtStateById         00416500 f   ipclib:ReadPoint.obj
 0001:000155e0       _GetIndPtStateByNameStr    004165e0 f   ipclib:ReadPoint.obj
 0001:000156c0       _GetIndPtRtStateById       004166c0 f   ipclib:ReadPoint.obj
 0001:000157a0       _GetIndPtRtStateByNameStr  004167a0 f   ipclib:ReadPoint.obj
 0001:00015880       _GetIndPtChangeTimeById    00416880 f   ipclib:ReadPoint.obj
 0001:00015950       _GetIndPtChangeTimeByNameStr 00416950 f   ipclib:ReadPoint.obj
 0001:00015a30       _IsIndPtFaultTagById       00416a30 f   ipclib:ReadPoint.obj
 0001:00015b10       _IsIndPtFaultTagByNameStr  00416b10 f   ipclib:ReadPoint.obj
 0001:00015c00       _GetIndPtSTCById           00416c00 f   ipclib:ReadPoint.obj
 0001:00015cd0       _GetIndPtSTCByNameStr      00416cd0 f   ipclib:ReadPoint.obj
 0001:00015da0       _GetCharaPtDataById        00416da0 f   ipclib:ReadPoint.obj
 0001:00015e40       _GetCharaPtDataByNameStr   00416e40 f   ipclib:ReadPoint.obj
 0001:00015ee0       _GetCharaStartPtNameById   00416ee0 f   ipclib:ReadPoint.obj
 0001:00015f80       _GetCharaStartPtNameByNameStr 00416f80 f   ipclib:ReadPoint.obj
 0001:00016020       _GetCharaPtNumById         00417020 f   ipclib:ReadPoint.obj
 0001:000160c0       _GetCharaPtNumByNameStr    004170c0 f   ipclib:ReadPoint.obj
 0001:00016160       _GetIndPtStateStrById      00417160 f   ipclib:ReadPoint.obj
 0001:000162c0       _GetIndPtStateStrByNameStr 004172c0 f   ipclib:ReadPoint.obj
 0001:00016420       _GetIndPtRtStateStrById    00417420 f   ipclib:ReadPoint.obj
 0001:00016580       _GetIndPtRtStateStrByNameStr 00417580 f   ipclib:ReadPoint.obj
 0001:000166e0       _GetIndPtAlmMsgStrById     004176e0 f   ipclib:ReadPoint.obj
 0001:00016850       _GetIndPtAlmMsgByNameStr   00417850 f   ipclib:ReadPoint.obj
 0001:000169c0       _GetPtCmdMsgStrById        004179c0 f   ipclib:ReadPoint.obj
 0001:00016b90       _GetPtCmdMsgStrByNameStr   00417b90 f   ipclib:ReadPoint.obj
 0001:00016d00       _GetCurvePtDataById        00417d00 f   ipclib:ReadPoint.obj
 0001:00016da0       _GetCurvePtDataByNameStr   00417da0 f   ipclib:ReadPoint.obj
 0001:00016e40       _GetCurvePtEngParaById     00417e40 f   ipclib:ReadPoint.obj
 0001:00016ee0       _GetCurvePtEngParaByNameStr 00417ee0 f   ipclib:ReadPoint.obj
 0001:00016f80       _GetCurvePtSegNumById      00417f80 f   ipclib:ReadPoint.obj
 0001:00017020       _GetCurvePtSegNumByNameStr 00418020 f   ipclib:ReadPoint.obj
 0001:000170c0       _GetObjPtStateById         004180c0 f   ipclib:ReadPoint.obj
 0001:00017230       _GetObjPtStateByNameStr    00418230 f   ipclib:ReadPoint.obj
 0001:00017390       _GetObjPtCmdTimeById       00418390 f   ipclib:ReadPoint.obj
 0001:00017440       _GetObjPtCmdTimeByNameStr  00418440 f   ipclib:ReadPoint.obj
 0001:000174f0       _GetObjPtUsrNameById       004184f0 f   ipclib:ReadPoint.obj
 0001:00017590       _GetObjPtUsrNameByNameStr  00418590 f   ipclib:ReadPoint.obj
 0001:00017630       _GetObjPtHostIdById        00418630 f   ipclib:ReadPoint.obj
 0001:000176d0       _GetObjPtHostIdByNameStr   004186d0 f   ipclib:ReadPoint.obj
 0001:00017770       _GetObjPtCmdStatusById     00418770 f   ipclib:ReadPoint.obj
 0001:00017820       _GetObjPtCmdStatusByNameStr 00418820 f   ipclib:ReadPoint.obj
 0001:000178d0       _GetObjPtCmdDataById       004188d0 f   ipclib:ReadPoint.obj
 0001:00017980       _GetObjPtCmdDataByNameStr  00418980 f   ipclib:ReadPoint.obj
 0001:00017a30       _GetObjPtFbStatus1ById     00418a30 f   ipclib:ReadPoint.obj
 0001:00017ae0       _GetObjPtFbStatus1ByNameStr 00418ae0 f   ipclib:ReadPoint.obj
 0001:00017b90       _GetObjPtFbStatus2ById     00418b90 f   ipclib:ReadPoint.obj
 0001:00017c40       _GetObjPtFbStatus2ByNameStr 00418c40 f   ipclib:ReadPoint.obj
 0001:00017cf0       _GetObjPtCmdParamById      00418cf0 f   ipclib:ReadPoint.obj
 0001:00017d90       _GetObjPtCmdParamByNameStr 00418d90 f   ipclib:ReadPoint.obj
 0001:00017e30       _GetTimePtStatusById       00418e30 f   ipclib:ReadPoint.obj
 0001:00017ed0       _GetTimePtStatusByNameStr  00418ed0 f   ipclib:ReadPoint.obj
 0001:00017f70       _GetTimePtSecValueById     00418f70 f   ipclib:ReadPoint.obj
 0001:00018010       _GetTimePtSecValueByNameStr 00419010 f   ipclib:ReadPoint.obj
 0001:000180b0       _GetTimePtMsValueById      004190b0 f   ipclib:ReadPoint.obj
 0001:00018150       _GetTimePtMsValueByNameStr 00419150 f   ipclib:ReadPoint.obj
 0001:000181f0       _GetTimePtUsrNameById      004191f0 f   ipclib:ReadPoint.obj
 0001:00018290       _GetTimePtUsrNameByNameStr 00419290 f   ipclib:ReadPoint.obj
 0001:00018330       _GetTimePtHostIdById       00419330 f   ipclib:ReadPoint.obj
 0001:000183d0       _GetTimePtHostIdByNameStr  004193d0 f   ipclib:ReadPoint.obj
 0001:00018470       _GetTimePtUpdateTimeById   00419470 f   ipclib:ReadPoint.obj
 0001:00018520       _GetTimePtUpdateTimeByNameStr 00419520 f   ipclib:ReadPoint.obj
 0001:000185d0       _GetTimePtCoordinateById   004195d0 f   ipclib:ReadPoint.obj
 0001:00018680       _GetTimePtCoordinateByNameStr 00419680 f   ipclib:ReadPoint.obj
 0001:00018730       _GetPtDataByStr            00419730 f   ipclib:ReadPoint.obj
 0001:00018ac0       _SetModuleName             00419ac0 f   ipclib:syslog.obj
 0001:00018b60       _GetModuleName             00419b60 f   ipclib:syslog.obj
 0001:00018c00       _SetModuleId               00419c00 f   ipclib:syslog.obj
 0001:00018c60       _GetModuleId               00419c60 f   ipclib:syslog.obj
 0001:00018c90       _InitSysLog                00419c90 f   ipclib:syslog.obj
 0001:00018d70       _GetSysLogCount            00419d70 f   ipclib:syslog.obj
 0001:00018db0       _GetSysLogHeader           00419db0 f   ipclib:syslog.obj
 0001:00018e30       _GetSysLogTail             00419e30 f   ipclib:syslog.obj
 0001:00018ed0       _GetSysLogInfo             00419ed0 f   ipclib:syslog.obj
 0001:00018f30       _GetLogOutputFilter        00419f30 f   ipclib:syslog.obj
 0001:00018fb0       _SetLogOutputFilter        00419fb0 f   ipclib:syslog.obj
 0001:000190a0       _GetLogOutputFileFlag      0041a0a0 f   ipclib:syslog.obj
 0001:00019120       _SetLogOutputFileFlag      0041a120 f   ipclib:syslog.obj
 0001:000191d0       _SendTraceMsg              0041a1d0 f   ipclib:syslog.obj
 0001:00019260       _Err_log                   0041a260 f   ipclib:syslog.obj
 0001:000192a0       _log_printf                0041a2a0 f   ipclib:syslog.obj
 0001:000192f0       _log_write                 0041a2f0 f   ipclib:syslog.obj
 0001:00019340       _err_write                 0041a340 f   ipclib:syslog.obj
 0001:00019390       _warn_write                0041a390 f   ipclib:syslog.obj
 0001:000193e0       _info_write                0041a3e0 f   ipclib:syslog.obj
 0001:00019430       _SendErrMsg                0041a430 f   ipclib:syslog.obj
 0001:000194a0       _SendWarnMsg               0041a4a0 f   ipclib:syslog.obj
 0001:00019510       _SendInfoMsg               0041a510 f   ipclib:syslog.obj
 0001:00019580       _SendSendMsg               0041a580 f   ipclib:syslog.obj
 0001:000195f0       _SendRecvMsg               0041a5f0 f   ipclib:syslog.obj
 0001:00019660       _CreateEmsEnv              0041a660 f   ipclib:ipc_lib.obj
 0001:000199eb       _CreateShareMemory         0041a9eb f   ipclib:ipc_lib.obj
 0001:00019b0e       _UnlinkShareMemory         0041ab0e f   ipclib:ipc_lib.obj
 0001:00019b8a       _CreateSemSet              0041ab8a f   ipclib:ipc_lib.obj
 0001:00019c85       _LinktoShareMem            0041ac85 f   ipclib:ipc_lib.obj
 0001:00019db9       _LinktoSemSet              0041adb9 f   ipclib:ipc_lib.obj
 0001:00019ea5       _WaitforSem                0041aea5 f   ipclib:ipc_lib.obj
 0001:00019fdc       _ReleaseReadSem            0041afdc f   ipclib:ipc_lib.obj
 0001:0001a08e       _ReleaseWriteSem           0041b08e f   ipclib:ipc_lib.obj
 0001:0001a140       _CreateLockFile            0041b140 f   ipclib:ipc_lib.obj
 0001:0001a1fb       _ClearEmsEnv               0041b1fb f   ipclib:ipc_lib.obj
 0001:0001a200       _InitThreadMutex           0041b200 f   ipclib:ipc_lib.obj
 0001:0001a228       _GetThreadMutex            0041b228 f   ipclib:ipc_lib.obj
 0001:0001a255       _ReleaseThreadMutex        0041b255 f   ipclib:ipc_lib.obj
 0001:0001a280       _NoConsoleSystemCmd        0041b280 f   ipclib:ipc_lib.obj
 0001:0001a4c0       _GetH9000ErrorId           0041b4c0 f   ipclib:MountDB.obj
 0001:0001a4f0       _CheckHostLicenseValid     0041b4f0 f   ipclib:MountDB.obj
 0001:0001a530       _GetAnaPtLmtValid          0041b530 f   ipclib:MountDB.obj
 0001:0001a580       _GetAnaPtLmtValue          0041b580 f   ipclib:MountDB.obj
 0001:0001a740       _GetAnaPtLmtStr            0041b740 f   ipclib:MountDB.obj
 0001:0001a970       _GetHostLicenseInfo        0041b970 f   ipclib:MountDB.obj
 0001:0001ab80       _MountDB                   0041bb80 f   ipclib:MountDB.obj
 0001:0001ac20       _UnMountDB                 0041bc20 f   ipclib:MountDB.obj
 0001:0001ac70       _MountDBFile               0041bc70 f   ipclib:MountDB.obj
 0001:0001ae80       _CreateMapFile             0041be80 f   ipclib:MountDB.obj
 0001:0001aef0       _MapFile                   0041bef0 f   ipclib:MountDB.obj
 0001:0001af60       _MapView                   0041bf60 f   ipclib:MountDB.obj
 0001:0001afc0       _OpenMap                   0041bfc0 f   ipclib:MountDB.obj
 0001:0001b020       _MountFile                 0041c020 f   ipclib:MountDB.obj
 0001:0001b1f0       _UnMountFile               0041c1f0 f   ipclib:MountDB.obj
 0001:0001b250       _IsIndTypePoint            0041c250 f   ipclib:dms_util.obj
 0001:0001b2b0       _IsAnaTypePoint            0041c2b0 f   ipclib:dms_util.obj
 0001:0001b310       _AnlgDatatoFloat           0041c310 f   ipclib:dms_util.obj
 0001:0001b350       _FloattoAnlgData           0041c350 f   ipclib:dms_util.obj
 0001:0001b390       _IsPrimeNumber             0041c390 f   ipclib:dms_util.obj
 0001:0001b430       _FindLastPrimeNumber       0041c430 f   ipclib:dms_util.obj
 0001:0001b4a0       _GetNameStrHash            0041c4a0 f   ipclib:dms_util.obj
 0001:0001b520       _PointNametoStr            0041c520 f   ipclib:dms_util.obj
 0001:0001b5c0       _StrtoPointName            0041c5c0 f   ipclib:dms_util.obj
 0001:0001b850       _GetPtIdFromStr            0041c850 f   ipclib:dms_util.obj
 0001:0001b950       _CrossCopy                 0041c950 f   ipclib:dms_util.obj
 0001:0001b9a0       _AsciiToHex                0041c9a0 f   ipclib:dms_util.obj
 0001:0001bb30       _GetSysTime                0041cb30 f   ipclib:dms_util.obj
 0001:0001bbb0       _GetSysTimeEx              0041cbb0 f   ipclib:dms_util.obj
 0001:0001bcb0       _GetSysTimeStr             0041ccb0 f   ipclib:dms_util.obj
 0001:0001bd40       _GetSysShortTimeStr        0041cd40 f   ipclib:dms_util.obj
 0001:0001bdb0       _PrintfWithCurrTime        0041cdb0 f   ipclib:dms_util.obj
 0001:0001be10       _PrintfWithCurrShortTime   0041ce10 f   ipclib:dms_util.obj
 0001:0001be70       _GetStringsFromStr         0041ce70 f   ipclib:dms_util.obj
 0001:0001c200       _LocateKeyword             0041d200 f   ipclib:LoadEmsDefine.obj
 0001:0001c2a0       _IsFileEndStr              0041d2a0 f   ipclib:LoadEmsDefine.obj
 0001:0001c310       _LoadEmsDefine             0041d310 f   ipclib:LoadEmsDefine.obj
 0001:00020120       _GetSysHostNum             00421120 f   ipclib:LoadEmsDefine.obj
 0001:00020150       _GetHostStnId              00421150 f   ipclib:LoadEmsDefine.obj
 0001:00020210       _GetLocalHostStnId         00421210 f   ipclib:LoadEmsDefine.obj
 0001:00020280       _GetHostId                 00421280 f   ipclib:LoadEmsDefine.obj
 0001:00020330       _GetHostType               00421330 f   ipclib:LoadEmsDefine.obj
 0001:000203f0       _GetHostDomain             004213f0 f   ipclib:LoadEmsDefine.obj
 0001:000204b0       _IsColorPrinter            004214b0 f   ipclib:LoadEmsDefine.obj
 0001:00020510       _GetHostDisk               00421510 f   ipclib:LoadEmsDefine.obj
 0001:000205d0       _GetLocalHostId            004215d0 f   ipclib:LoadEmsDefine.obj
 0001:00020640       _GetHostNameById           00421640 f   ipclib:LoadEmsDefine.obj
 0001:000206d0       _GetBroadcastIpaddr        004216d0 f   ipclib:LoadEmsDefine.obj
 0001:00020780       _GetHostIpaddrNum          00421780 f   ipclib:LoadEmsDefine.obj
 0001:00020840       _GetHostIpaddr             00421840 f   ipclib:LoadEmsDefine.obj
 0001:00020990       _IsServerStation           00421990 f   ipclib:LoadEmsDefine.obj
 0001:00020a90       _IsOperatorStation         00421a90 f   ipclib:LoadEmsDefine.obj
 0001:00020b90       _GetLocalHostPrvg          00421b90 f   ipclib:LoadEmsDefine.obj
 0001:00020cd0       _GetAlmPrinterNum          00421cd0 f   ipclib:LoadEmsDefine.obj
 0001:00020d50       _GetAlmPrinter             00421d50 f   ipclib:LoadEmsDefine.obj
 0001:00020e40       _GetHcopyPrinterNum        00421e40 f   ipclib:LoadEmsDefine.obj
 0001:00020ec0       _GetHcopyPrinter           00421ec0 f   ipclib:LoadEmsDefine.obj
 0001:00020fb0       _GetRptPrinterNum          00421fb0 f   ipclib:LoadEmsDefine.obj
 0001:00021030       _GetRptPrinter             00422030 f   ipclib:LoadEmsDefine.obj
 0001:00021120       _GetRunProcessNum          00422120 f   ipclib:LoadEmsDefine.obj
 0001:00021220       _GetRunProcess             00422220 f   ipclib:LoadEmsDefine.obj
 0001:000213b0       _GetRcpHostNum             004223b0 f   ipclib:LoadEmsDefine.obj
 0001:000213e0       _GetRcpHostName            004223e0 f   ipclib:LoadEmsDefine.obj
 0001:00021470       _GetDhswHostName           00422470 f   ipclib:LoadEmsDefine.obj
 0001:00021570       _GetTimeServerNum          00422570 f   ipclib:LoadEmsDefine.obj
 0001:000215a0       _GetTimeServer             004225a0 f   ipclib:LoadEmsDefine.obj
 0001:00021660       _GetPlcScanHostNum         00422660 f   ipclib:LoadEmsDefine.obj
 0001:00021740       _GetPlcScanHost            00422740 f   ipclib:LoadEmsDefine.obj
 0001:00021890       _GetLcuIpaddrNum           00422890 f   ipclib:LoadEmsDefine.obj
 0001:00021970       _GetLcuIpaddr              00422970 f   ipclib:LoadEmsDefine.obj
 0001:00021af0       _GetPlcMode                00422af0 f   ipclib:LoadEmsDefine.obj
 0001:00021b80       _GetSysNetNum              00422b80 f   ipclib:LoadEmsDefine.obj
 0001:00021bb0       _GetCtrlNetNum             00422bb0 f   ipclib:LoadEmsDefine.obj
 0001:00021be0       _IsCtrlNetIndepend         00422be0 f   ipclib:LoadEmsDefine.obj
 0001:00021c10       _IsEventFileLog            00422c10 f   ipclib:LoadEmsDefine.obj
 0001:00021c40       _IsPowerAdjLog             00422c40 f   ipclib:LoadEmsDefine.obj
 0001:00021c70       _IsInfoRecTable            00422c70 f   ipclib:LoadEmsDefine.obj
 0001:00021ca0       _IsIoForceDisable          00422ca0 f   ipclib:LoadEmsDefine.obj
 0001:00021cd0       _IsDevObjDisable           00422cd0 f   ipclib:LoadEmsDefine.obj
 0001:00021d00       _IsCurveWndDisable         00422d00 f   ipclib:LoadEmsDefine.obj
 0001:00021d30       _IsHisRdbDisable           00422d30 f   ipclib:LoadEmsDefine.obj
 0001:00021d60       _IsHostNoHardDisk          00422d60 f   ipclib:LoadEmsDefine.obj
 0001:00021df0       _IsHostIsland              00422df0 f   ipclib:LoadEmsDefine.obj
 0001:00021e80       _GetEmsVariable            00422e80 f   ipclib:LoadEmsDefine.obj
 0001:00021f30       _GetEmsString              00422f30 f   ipclib:LoadEmsDefine.obj
 0001:00021ff0       _GetSystemPassword         00422ff0 f   ipclib:LoadEmsDefine.obj
 0001:000220c0       _GetSysLcuId               004230c0 f   ipclib:LoadEmsDefine.obj
 0001:00022100       _GetHostSysLcuId           00423100 f   ipclib:LoadEmsDefine.obj
 0001:00022160       _GetLocalSysLcuId          00423160 f   ipclib:LoadEmsDefine.obj
 0001:000221d0       _GetHostCmdId              004231d0 f   ipclib:LoadEmsDefine.obj
 0001:00022280       _GetHostStatePtId          00423280 f   ipclib:LoadEmsDefine.obj
 0001:00022380       _GetHostStatePtNameStr     00423380 f   ipclib:LoadEmsDefine.obj
 0001:000223e0       _GetHostState              004233e0 f   ipclib:LoadEmsDefine.obj
 0001:00022440       _GetLocalHostState         00423440 f   ipclib:LoadEmsDefine.obj
 0001:000224c0       _GetHostSysNetStatePtId    004234c0 f   ipclib:LoadEmsDefine.obj
 0001:00022600       _GetHostSysNetStatePtNameStr 00423600 f   ipclib:LoadEmsDefine.obj
 0001:00022660       _GetHostSysNetState        00423660 f   ipclib:LoadEmsDefine.obj
 0001:000226c0       _GetHostCtrlNetStatePtId   004236c0 f   ipclib:LoadEmsDefine.obj
 0001:00022830       _GetHostCtrlNetStatePtNameStr 00423830 f   ipclib:LoadEmsDefine.obj
 0001:00022890       _GetHostCtrlNetState       00423890 f   ipclib:LoadEmsDefine.obj
 0001:000228f0       _GetDispatchStnName        004238f0 f   ipclib:LoadEmsDefine.obj
 0001:00022950       _IsLocalHostDispatch       00423950 f   ipclib:LoadEmsDefine.obj
 0001:000229e0       _IsHostStateManage         004239e0 f   ipclib:LoadEmsDefine.obj
 0001:00022a90       _GetHostLongname           00423a90 f   ipclib:LoadEmsDefine.obj
 0001:00022b50       _SetPtValueIostById        00423b50 f   ipclib:WritePoint.obj
 0001:00023e70       _SetPtValueIostByNameStr   00424e70 f   ipclib:WritePoint.obj
 0001:00023f00       _SetPtIoattrById           00424f00 f   ipclib:WritePoint.obj
 0001:000242b0       _SetPtIoattrByNameStr      004252b0 f   ipclib:WritePoint.obj
 0001:00024640       _SetImpPtVarById           00425640 f   ipclib:WritePoint.obj
 0001:000246c0       _SetImpPtVarByNameStr      004256c0 f   ipclib:WritePoint.obj
 0001:00024730       _SetCharaPtDataById        00425730 f   ipclib:WritePoint.obj
 0001:000247c0       _SetCharaPtDataByNameStr   004257c0 f   ipclib:WritePoint.obj
 0001:00024840       _SetAnaPtfValueById        00425840 f   ipclib:WritePoint.obj
 0001:00024930       _SetAnaPtfValueByNameStr   00425930 f   ipclib:WritePoint.obj
 0001:00024a20       _SetAnaPtEngLmtParaById    00425a20 f   ipclib:WritePoint.obj
 0001:00024bc0       _SetAnaPtEngLmtParaByNameStr 00425bc0 f   ipclib:WritePoint.obj
 0001:00024d60       _SetIndPtStcById           00425d60 f   ipclib:WritePoint.obj
 0001:00024e40       _SetIndPtStcByNameStr      00425e40 f   ipclib:WritePoint.obj
 0001:00024f30       _SetIndPtAlmMsgSelById     00425f30 f   ipclib:WritePoint.obj
 0001:00024fc0       _SetIndPtAlmMsgSelByNameStr 00425fc0 f   ipclib:WritePoint.obj
 0001:00025050       _SetPtCmdMsgSelById        00426050 f   ipclib:WritePoint.obj
 0001:000250b0       _SetPtCmdMsgSelByNameStr   004260b0 f   ipclib:WritePoint.obj
 0001:00025110       _SetPtCtrlAddrById         00426110 f   ipclib:WritePoint.obj
 0001:00025170       _SetPtCtrlAddrByNameStr    00426170 f   ipclib:WritePoint.obj
 0001:000251d0       _SetPtIoGroupById          004261d0 f   ipclib:WritePoint.obj
 0001:00025230       _SetPtIoGroupByNameStr     00426230 f   ipclib:WritePoint.obj
 0001:00025290       _SetCurvePtDataById        00426290 f   ipclib:WritePoint.obj
 0001:00025430       _SetCurvePtDataByNameStr   00426430 f   ipclib:WritePoint.obj
 0001:000255c0       _SetCurvePtEngParaById     004265c0 f   ipclib:WritePoint.obj
 0001:00025660       _SetCurvePtEngParaByNameStr 00426660 f   ipclib:WritePoint.obj
 0001:00025700       _SetPairPtById             00426700 f   ipclib:WritePoint.obj
 0001:00025810       _SetPairPtByNameStr        00426810 f   ipclib:WritePoint.obj
 0001:00025920       _SetDevObjPtVarById        00426920 f   ipclib:WritePoint.obj
 0001:00025990       _SetDevObjPtVarByNameStr   00426990 f   ipclib:WritePoint.obj
 0001:000259f0       _SetTimePtVarById          004269f0 f   ipclib:WritePoint.obj
 0001:00025a60       _SetTimePtVarByNameStr     00426a60 f   ipclib:WritePoint.obj
 0001:00025ac0       _SameMacAddr               00426ac0 f   ipclib:mac.obj
 0001:00025b20       _list_netcard_mac          00426b20 f   ipclib:mac.obj
 0001:00025c50       _GetAnaPtLmtBase           00426c50 f   ipclib:mac.obj
 0001:00025e30       _CmdProcess                00426e30 f   cmdlib:CmdProcess.obj
 0001:00028430       _GetFormatAnaFromRealValue 00429430 f   otsd:SimuEngine_util.obj
 0001:00028560       _GetCurrentTimeTable       00429560 f   otsd:SimuEngine_util.obj
 0001:000285e0       _GetCurrentTimeMS_Table    004295e0 f   otsd:SimuEngine_util.obj
 0001:00028660       _CalcuDiff                 00429660 f   otsd:SimuEngine_util.obj
 0001:000287f0       _BdOTSStat                 004297f0 f   otsd:SimuEngine_util.obj
 0001:00028830       _BdIostSetCmd              00429830 f   otsd:SimuEngine_util.obj
 0001:00028b80       _GetFZStyle                00429b80 f   otsd:SimuEngine_util.obj
 0001:00028bc0       _GetUnitValue              00429bc0 f   otsd:SimuEngine_util.obj
 0001:00028c20       _GetRealValue              00429c20 f   otsd:SimuEngine_util.obj
 0001:00028c50       _CheckStrIsNumeric         00429c50 f   otsd:SimuEngine_util.obj
 0001:00028e00       _BdYGParam                 00429e00 f   otsd:SimuEngine_util.obj
 0001:00028f70       _BdWGParam                 00429f70 f   otsd:SimuEngine_util.obj
 0001:000290e0       _BdANADisturb              0042a0e0 f   otsd:SimuEngine_util.obj
 0001:00029210       _GetAnaValueFromName       0042a210 f   otsd:SimuEngine_util.obj
 0001:000292d0       _GetSequenceIdByName       0042a2d0 f   otsd:SimuEngine_util.obj
 0001:00029350       _CvtArrayToStr             0042a350 f   otsd:ots_lib.obj
 0001:000293d0       _GetCurTimeStr             0042a3d0 f   otsd:ots_lib.obj
 0001:00029450       _tmtostring                0042a450 f   otsd:ots_lib.obj
 0001:000294c0       _WriteRec                  0042a4c0 f   otsd:ots_lib.obj
 0001:00029500       _ReadOtsDefFile            0042a500 f   otsd:ots_lib.obj
 0001:00029890       _GetCharBits               0042a890 f   otsd:ots_lib.obj
 0001:000298f0       _GetPointNumber            0042a8f0 f   otsd:ots_lib.obj
 0001:00029950       _SetPtScanEnable           0042a950 f   otsd:ots_lib.obj
 0001:00029a90       _SetAllPtScanEnable        0042aa90 f   otsd:ots_lib.obj
 0001:00029b80       _ReadDBByName              0042ab80 f   otsd:ots_lib.obj
 0001:00029e80       _BdPollingCmd              0042ae80 f   otsd:ots_lib.obj
 0001:00029f70       _GetYx                     0042af70 f   otsd:ots_lib.obj
 0001:0002a110       _GetYc                     0042b110 f   otsd:ots_lib.obj
 0001:0002a2b0       _SimulogDataLoad           0042b2b0 f   otsd:load_SimuEngine_rtdb.obj
 0001:0002b340       _FillDisturbScene          0042c340 f   otsd:load_SimuEngine_rtdb.obj
 0001:0002b400       _FillStepShowID            0042c400 f   otsd:load_SimuEngine_rtdb.obj
 0001:0002b540       _FillMdlWithParam          0042c540 f   otsd:load_SimuEngine_rtdb.obj
 0001:0002be80       _ReadSequenceID            0042ce80 f   otsd:load_SimuEngine_rtdb.obj
 0001:0002c050       _ReadSequenceDBIN          0042d050 f   otsd:load_SimuEngine_rtdb.obj
 0001:0002c2a0       _ReadSequenceAuto          0042d2a0 f   otsd:load_SimuEngine_rtdb.obj
 0001:0002c44c       _CreateThread@24           0042d44c f   kernel32:KERNEL32.dll
 0001:0002c452       _Beep@8                    0042d452 f   kernel32:KERNEL32.dll
 0001:0002c458       _Sleep@4                   0042d458 f   kernel32:KERNEL32.dll
 0001:0002c45e       _MapViewOfFile@20          0042d45e f   kernel32:KERNEL32.dll
 0001:0002c464       _GetLastError@0            0042d464 f   kernel32:KERNEL32.dll
 0001:0002c46a       _OpenFileMappingA@12       0042d46a f   kernel32:KERNEL32.dll
 0001:0002c470       _CreateFileMappingA@24     0042d470 f   kernel32:KERNEL32.dll
 0001:0002c476       _CloseHandle@4             0042d476 f   kernel32:KERNEL32.dll
 0001:0002c47c       _UnmapViewOfFile@4         0042d47c f   kernel32:KERNEL32.dll
 0001:0002c482       _CreateSemaphoreA@16       0042d482 f   kernel32:KERNEL32.dll
 0001:0002c488       _OpenSemaphoreA@12         0042d488 f   kernel32:KERNEL32.dll
 0001:0002c48e       _WaitForSingleObject@8     0042d48e f   kernel32:KERNEL32.dll
 0001:0002c494       _ReleaseSemaphore@12       0042d494 f   kernel32:KERNEL32.dll
 0001:0002c49a       _CreateFileA@28            0042d49a f   kernel32:KERNEL32.dll
 0001:0002c4a0       _CreateMutexA@12           0042d4a0 f   kernel32:KERNEL32.dll
 0001:0002c4a6       _ReleaseMutex@4            0042d4a6 f   kernel32:KERNEL32.dll
 0001:0002c4ac       _ReadFile@20               0042d4ac f   kernel32:KERNEL32.dll
 0001:0002c4b2       _CreateProcessA@40         0042d4b2 f   kernel32:KERNEL32.dll
 0001:0002c4b8       _CreatePipe@16             0042d4b8 f   kernel32:KERNEL32.dll
 0001:0002c4be       _GetStartupInfoA@4         0042d4be f   kernel32:KERNEL32.dll
 0001:0002c4c4       _GetVersionExA@4           0042d4c4 f   kernel32:KERNEL32.dll
 0001:0002c4ca       _GetFileSize@8             0042d4ca f   kernel32:KERNEL32.dll
 0001:0002c4d0       _GetLocalTime@4            0042d4d0 f   kernel32:KERNEL32.dll
 0001:0002c4d6       _DeviceIoControl@32        0042d4d6 f   kernel32:KERNEL32.dll
 0001:0002c4dc       _RegCloseKey@4             0042d4dc f   advapi32:ADVAPI32.dll
 0001:0002c4e2       _RegQueryValueExA@24       0042d4e2 f   advapi32:ADVAPI32.dll
 0001:0002c4e8       _RegEnumKeyExA@32          0042d4e8 f   advapi32:ADVAPI32.dll
 0001:0002c4ee       _RegOpenKeyExA@20          0042d4ee f   advapi32:ADVAPI32.dll
 0001:0002c500       _strcat                    0042d500 f   MSVCRTD:MSVCRTD.dll
 0001:0002c506       _strcpy                    0042d506 f   MSVCRTD:MSVCRTD.dll
 0001:0002c50c       _printf                    0042d50c f   MSVCRTD:MSVCRTD.dll
 0001:0002c512       _sprintf                   0042d512 f   MSVCRTD:MSVCRTD.dll
 0001:0002c518       _memset                    0042d518 f   MSVCRTD:MSVCRTD.dll
 0001:0002c51e       _memcpy                    0042d51e f   MSVCRTD:MSVCRTD.dll
 0001:0002c524       _localtime                 0042d524 f   MSVCRTD:MSVCRTD.dll
 0001:0002c52a       _strcmp                    0042d52a f   MSVCRTD:MSVCRTD.dll
 0001:0002c530       _fabs                      0042d530 f   MSVCRTD:MSVCRTD.dll
 0001:0002c536       _cos                       0042d536 f   MSVCRTD:MSVCRTD.dll
 0001:0002c53c       _sin                       0042d53c f   MSVCRTD:MSVCRTD.dll
 0001:0002c542       _exp                       0042d542 f   MSVCRTD:MSVCRTD.dll
 0001:0002c548       _sqrt                      0042d548 f   MSVCRTD:MSVCRTD.dll
 0001:0002c54e       _strstr                    0042d54e f   MSVCRTD:MSVCRTD.dll
 0001:0002c554       _atof                      0042d554 f   MSVCRTD:MSVCRTD.dll
 0001:0002c55a       _exit                      0042d55a f   MSVCRTD:MSVCRTD.dll
 0001:0002c560       _sscanf                    0042d560 f   MSVCRTD:MSVCRTD.dll
 0001:0002c566       _fprintf                   0042d566 f   MSVCRTD:MSVCRTD.dll
 0001:0002c56c       _strncmp                   0042d56c f   MSVCRTD:MSVCRTD.dll
 0001:0002c572       __ftol                     0042d572 f   MSVCRTD:MSVCRTD.dll
 0001:0002c578       _fclose                    0042d578 f   MSVCRTD:MSVCRTD.dll
 0001:0002c57e       _free                      0042d57e f   MSVCRTD:MSVCRTD.dll
 0001:0002c584       _time                      0042d584 f   MSVCRTD:MSVCRTD.dll
 0001:0002c590       _mainCRTStartup            0042d590 f   MSVCRTD:crtexe.obj
 0001:0002c6d8       _fscanf                    0042d6d8 f   MSVCRTD:MSVCRTD.dll
 0001:0002c6de       _fopen                     0042d6de f   MSVCRTD:MSVCRTD.dll
 0001:0002c6e4       _strlen                    0042d6e4 f   MSVCRTD:MSVCRTD.dll
 0001:0002c6ea       _fgets                     0042d6ea f   MSVCRTD:MSVCRTD.dll
 0001:0002c6f0       __chkesp                   0042d6f0 f   MSVCRTD:MSVCRTD.dll
 0001:0002c6f6       _strncpy                   0042d6f6 f   MSVCRTD:MSVCRTD.dll
 0001:0002c6fc       _vsprintf                  0042d6fc f   MSVCRTD:MSVCRTD.dll
 0001:0002c702       _strrchr                   0042d702 f   MSVCRTD:MSVCRTD.dll
 0001:0002c708       _mktime                    0042d708 f   MSVCRTD:MSVCRTD.dll
 0001:0002c70e       _rewind                    0042d70e f   MSVCRTD:MSVCRTD.dll
 0001:0002c720       __alloca_probe             0042d720 f   MSVCRTD:chkstk.obj
 0001:0002c720       __chkstk                   0042d720 f   MSVCRTD:chkstk.obj
 0001:0002c750       __isctype                  0042d750 f   MSVCRTD:MSVCRTD.dll
 0001:0002c756       _abs                       0042d756 f   MSVCRTD:MSVCRTD.dll
 0001:0002c75c       _fread                     0042d75c f   MSVCRTD:MSVCRTD.dll
 0001:0002c762       __strupr                   0042d762 f   MSVCRTD:MSVCRTD.dll
 0001:0002c762       _strupr                    0042d762 f   MSVCRTD:MSVCRTD.dll
 0001:0002c768       __exit                     0042d768 f   MSVCRTD:MSVCRTD.dll
 0001:0002c76e       __XcptFilter               0042d76e f   MSVCRTD:MSVCRTD.dll
 0001:0002c774       ___p___initenv             0042d774 f   MSVCRTD:MSVCRTD.dll
 0001:0002c77a       ___getmainargs             0042d77a f   MSVCRTD:MSVCRTD.dll
 0001:0002c780       __initterm                 0042d780 f   MSVCRTD:MSVCRTD.dll
 0001:0002c790       __setdefaultprecision      0042d790 f   MSVCRTD:fp8.obj
 0001:0002c7a8       ___setusermatherr          0042d7a8 f   MSVCRTD:MSVCRTD.dll
 0001:0002c7b0       __matherr                  0042d7b0 f   MSVCRTD:merr.obj
 0001:0002c7c0       __setargv                  0042d7c0 f   MSVCRTD:dllargv.obj
 0001:0002c7c6       ___p__commode              0042d7c6 f   MSVCRTD:MSVCRTD.dll
 0001:0002c7cc       ___p__fmode                0042d7cc f   MSVCRTD:MSVCRTD.dll
 0001:0002c7e0       __onexit                   0042d7e0 f   MSVCRTD:atonexit.obj
 0001:0002c820       _atexit                    0042d820 f   MSVCRTD:atonexit.obj
 0001:0002c838       ___set_app_type            0042d838 f   MSVCRTD:MSVCRTD.dll
 0001:0002c83e       __except_handler3          0042d83e f   MSVCRTD:MSVCRTD.dll
 0001:0002c844       __controlfp                0042d844 f   MSVCRTD:MSVCRTD.dll
 0001:0002c84a       ___dllonexit               0042d84a f   MSVCRTD:MSVCRTD.dll
 0001:0002c850       _gethostname@8             0042d850 f   wsock32:WSOCK32.dll
 0001:0002c856       _WSAStartup@8              0042d856 f   wsock32:WSOCK32.dll
 0001:0002c85c       _inet_addr@4               0042d85c f   wsock32:WSOCK32.dll
 0002:0000001c       ??_C@_04OAHI@Time?$AA@     0042e01c     get_coded_cmd.obj
 0002:00000024       ??_C@_06JDBI@Object?$AA@   0042e024     get_coded_cmd.obj
 0002:0000002c       ??_C@_0P@OHLE@Temp?5Character?$AA@ 0042e02c     get_coded_cmd.obj
 0002:0000003c       ??_C@_09IOKP@Parameter?$AA@ 0042e03c     get_coded_cmd.obj
 0002:00000048       ??_C@_05CFLF@Curve?$AA@    0042e048     get_coded_cmd.obj
 0002:00000050       ??_C@_0BA@INHL@Calcu?5Measurand?$AA@ 0042e050     get_coded_cmd.obj
 0002:00000060       ??_C@_0BC@JOHI@Output?5Indication?$AA@ 0042e060     get_coded_cmd.obj
 0002:00000074       ??_C@_0BB@EDBJ@Output?5Measurand?$AA@ 0042e074     get_coded_cmd.obj
 0002:00000088       ??_C@_0L@OCCN@Infomation?$AA@ 0042e088     get_coded_cmd.obj
 0002:00000094       ??_C@_0L@EFMM@Indication?$AA@ 0042e094     get_coded_cmd.obj
 0002:000000a0       ??_C@_03IJFE@SOE?$AA@      0042e0a0     get_coded_cmd.obj
 0002:000000a4       ??_C@_07JPPB@Impulse?$AA@  0042e0a4     get_coded_cmd.obj
 0002:000000ac       ??_C@_09PHHH@Measurand?$AA@ 0042e0ac     get_coded_cmd.obj
 0002:000000b8       ??_C@_06CEA@?J?$LB?$LM?d?$LF?c?$AA@ 0042e0b8     get_coded_cmd.obj
 0002:000000c0       ??_C@_08ENBB@?I?h?$LB?$LI?$LG?T?O?s?$AA@ 0042e0c0     get_coded_cmd.obj
 0002:000000cc       ??_C@_0L@IEMJ@?N?B?$LG?H?L?X?U?w?V?$LF?$AA@ 0042e0cc     get_coded_cmd.obj
 0002:000000d8       ??_C@_06NPKM@?U?$PL?$LG?$KI?V?$LF?$AA@ 0042e0d8     get_coded_cmd.obj
 0002:000000e0       ??_C@_06EFFB@?G?z?O?$NP?$LF?c?$AA@ 0042e0e0     get_coded_cmd.obj
 0002:000000e8       ??_C@_06MEEH@?$LM?F?K?c?A?$LP?$AA@ 0042e0e8     get_coded_cmd.obj
 0002:000000f0       ??_C@_0L@OFIL@?$LP?$KK?$LJ?X?J?d?$LD?v?A?$LP?$AA@ 0042e0f0     get_coded_cmd.obj
 0002:000000fc       ??_C@_0L@JIDP@?D?$KD?D?b?J?d?$LD?v?A?$LP?$AA@ 0042e0fc     get_coded_cmd.obj
 0002:00000108       ??_C@_0L@NGCP@?W?$NL?$LK?O?P?E?O?$KC?A?$LP?$AA@ 0042e108     get_coded_cmd.obj
 0002:00000114       ??_C@_0L@PBII@?I?$KI?$LC?i?$LP?$KK?H?k?A?$LP?$AA@ 0042e114     get_coded_cmd.obj
 0002:00000120       ??_C@_0L@CEEP@?V?P?$LG?O?$LP?$KK?H?k?A?$LP?$AA@ 0042e120     get_coded_cmd.obj
 0002:0000012c       ??_C@_06PJHH@?B?v?$LD?e?A?$LP?$AA@ 0042e12c     get_coded_cmd.obj
 0002:00000134       ??_C@_06EADP@?D?$KD?D?b?A?$LP?$AA@ 0042e134     get_coded_cmd.obj
 0002:0000013c       ??_C@_03BKGA@TME?$AA@      0042e13c     get_coded_cmd.obj
 0002:00000140       ??_C@_03IINI@OBJ?$AA@      0042e140     get_coded_cmd.obj
 0002:00000144       ??_C@_03GDDH@CHA?$AA@      0042e144     get_coded_cmd.obj
 0002:00000148       ??_C@_03OJHM@PAM?$AA@      0042e148     get_coded_cmd.obj
 0002:0000014c       ??_C@_03KGAD@CUR?$AA@      0042e14c     get_coded_cmd.obj
 0002:00000150       ??_C@_03JELK@CAL?$AA@      0042e150     get_coded_cmd.obj
 0002:00000154       ??_C@_03NEHL@OUS?$AA@      0042e154     get_coded_cmd.obj
 0002:00000158       ??_C@_03CICF@OUA?$AA@      0042e158     get_coded_cmd.obj
 0002:0000015c       ??_C@_03MCAA@SYS?$AA@      0042e15c     get_coded_cmd.obj
 0002:00000160       ??_C@_03IBEA@POL?$AA@      0042e160     get_coded_cmd.obj
 0002:00000164       ??_C@_03IJOL@INT?$AA@      0042e164     get_coded_cmd.obj
 0002:00000168       ??_C@_03BIEI@IMP?$AA@      0042e168     get_coded_cmd.obj
 0002:0000016c       ??_C@_03LAOF@ANA?$AA@      0042e16c     get_coded_cmd.obj
 0002:00000170       ??_C@_00A@?$AA@            0042e170     get_coded_cmd.obj
 0002:00000174       ??_C@_0BO@DCFK@?5?$CFs?5is?5not?5found?5in?5database?4?$AA@ 0042e174     get_coded_cmd.obj
 0002:00000194       ??_C@_05OGKG@?$CFs?4?$CFs?$AA@ 0042e194     get_coded_cmd.obj
 0002:0000019c       ??_C@_0CM@CIJF@get_coded_cmd?4c?5CmdProcess?5retur@ 0042e19c     get_coded_cmd.obj
 0002:000001c8       ??_C@_0CK@EJDG@get_coded_cmd?4c?5?5CmdProcess?5retu@ 0042e1c8     get_coded_cmd.obj
 0002:000001f4       ??_C@_0BF@JAP@BS?4BS_F1?4ANA?4WG_MVAR?$AA@ 0042e1f4     get_coded_cmd.obj
 0002:0000020c       ??_C@_0CB@OMIM@in?5CheckCmdBuffer?3?5cmd_name?$DN?$CFs?4?6@ 0042e20c     get_coded_cmd.obj
 0002:00000230       ??_C@_0BH@MPOF@?$LH?B?U?f?M?$KD?V?$LJ?$KD?$KM?C?$PM?A?n?N?$NO?$LH?$KI?O?B?$LE?o?$AA@ 0042e230     get_coded_cmd.obj
 0002:00000248       ??_C@_0CJ@HBFI@Err?3?5can?5not?5find?5?$CFs?5in?5sequence@ 0042e248     get_coded_cmd.obj
 0002:00000274       ??_C@_0BF@DOLB@Err?3?5recved?5?5?$CFs?5cmd?6?$AA@ 0042e274     get_coded_cmd.obj
 0002:0000028c       ??_C@_0BF@GHBE@?$CFd?4?$CFd?4?$CFd?4?$CFd?4?$CFd?4?$CFd?4?$CFd?$AA@ 0042e28c     get_coded_cmd.obj
 0002:000002a4       ??_C@_0CH@HHI@cmd_type?$DN?$CFd?5not?5processsed?5by?5si@ 0042e2a4     get_coded_cmd.obj
 0002:000002d0       __real@8@4008fa00000000000000 0042e2d0     get_coded_cmd.obj
 0002:000002d8       ??_C@_0CH@NANH@?6in?5GetNLF_IdByName?3?5?$CFs?5is?5not?5f@ 0042e2d8     model_proc.obj
 0002:00000300       __real@8@00000000000000000000 0042e300     model_proc.obj
 0002:00000308       ??_C@_0DA@EBCG@This?5point?5is?5not?5Found?5in?5the?5d@ 0042e308     model_proc.obj
 0002:00000338       __real@8@3fff8000000000000000 0042e338     model_proc.obj
 0002:00000340       __real@8@40008000000000000000 0042e340     model_proc.obj
 0002:00000348       __real@8@40018000000000000000 0042e348     model_proc.obj
 0002:00000350       ??_C@_0CM@EJNB@NLF?5Function?5is?5not?5found?5in?5the@ 0042e350     model_proc.obj
 0002:0000037c       ??_C@_0CA@NGGB@?$CFs?5point?5is?5not?5analog?5entry?5?$CB?6?$AA@ 0042e37c     model_proc.obj
 0002:0000039c       ??_C@_0CO@EJBK@?$CFs?5point?5is?5not?5found?5in?5the?5dat@ 0042e39c     model_proc.obj
 0002:000003cc       ??_C@_01PJCK@?4?$AA@       0042e3cc     model_proc.obj
 0002:000003d0       ??_C@_0CH@EFAO@in?5GetModelIdByName?3?5?$CFs?5is?5not?5f@ 0042e3d0     model_proc.obj
 0002:000003f8       ??_C@_0BJ@DOAJ@?6?7Active?5Model?5Name?3?7?$CFs?6?$AA@ 0042e3f8     model_proc.obj
 0002:00000414       ??_C@_0DD@EMCC@This?5point?5?$CFs?5is?5not?5Found?5in?5th@ 0042e414     model_proc.obj
 0002:00000448       ??_C@_0P@KAHM@Stop?5Model?5?$CFs?6?$AA@ 0042e448     model_proc.obj
 0002:00000458       ??_C@_03HKPM@?$DN?$CFx?$AA@ 0042e458     read_recv_buf.obj
 0002:0000045c       ??_C@_0L@KBPP@?6id?$DN?$CF02d?3?5?$AA@ 0042e45c     read_recv_buf.obj
 0002:00000468       ??_C@_0BI@ILLN@after?5LAN_ReadPtrInit?4?6?$AA@ 0042e468     SimuEngine.obj
 0002:00000480       ??_C@_0BJ@BMFE@before?5LAN_ReadPtrInit?4?6?$AA@ 0042e480     SimuEngine.obj
 0002:0000049c       ??_C@_06IBFK@?9debug?$AA@  0042e49c     SimuEngine.obj
 0002:000004a4       ??_C@_0DI@IAGN@trend_data_rec?3?5RealCurve?3?3?5?5Lin@ 0042e4a4     SimuEngine.obj
 0002:000004dc       ??_C@_0BI@FOLL@Fail?5to?5?5Real?5curve?5shm?$AA@ 0042e4dc     SimuEngine.obj
 0002:000004f4       ??_C@_0BE@EFLB@simulog?4dat?5error?$CB?6?$AA@ 0042e4f4     SimuEngine.obj
 0002:00000508       ??_C@_0CD@KEB@call?5MountDB?$CIDATABASE_NAME?$CJ?5erro@ 0042e508     SimuEngine.obj
 0002:0000052c       ??_C@_0BA@MGE@Simulog?5Start?4?6?$AA@ 0042e52c     SimuEngine.obj
 0002:0000053c       ??_C@_0CE@FHGL@?$DN?$DN?$DN?$DN?5simulog?3?5Create?5thread?5fail@ 0042e53c     SimuEngine.obj
 0002:00000560       ??_C@_0CO@NMIH@?$DN?$DN?$DN?$DN?5simulog?3?5Create?5mdl?5thread?5@ 0042e560     SimuEngine.obj
 0002:00000590       ??_C@_0DA@LIJN@?$DN?$DN?$DN?$DN?5simulog?3?5Create?5seq?5logical@ 0042e590     SimuEngine.obj
 0002:000005c0       ??_C@_0DG@CALI@?$DN?$DN?$DN?$DN?5simulog?3?5Create?5seq?5logical@ 0042e5c0     SimuEngine.obj
 0002:000005f8       ??_C@_0CI@GDBC@?$DN?$DN?$DN?$DN?5simulog?3?5Create?5seq?5thread?5@ 0042e5f8     SimuEngine.obj
 0002:00000620       ??_C@_0CO@CFGB@?$DN?$DN?$DN?$DN?5simulog?3?5Create?5seq?5thread?5@ 0042e620     SimuEngine.obj
 0002:00000650       ??_C@_0CH@HJLG@in?5GetSceneIdByName?3?5?$CFs?5is?5not?5f@ 0042e650     SimuEngine.obj
 0002:00000678       ??_C@_0BF@GBCM@BS?4BS_SYS?4SYS?4BY_061?$AA@ 0042e678     SimuEngine.obj
 0002:00000690       ??_C@_0DE@NJJA@in?5Scene?3?5id?$DN?$CFd?5name?$DN?5?$CFs?5is?5not?5@ 0042e690     SimuEngine.obj
 0002:000006c4       ??_C@_02JBAA@?$CFf?$AA@    0042e6c4     SimuEngine.obj
 0002:000006c8       ??_C@_0CO@OONL@?7?$CK?$CK?$CK?7?$FL?5step?5?$CFd?5?$FN?5condition?5is?5no@ 0042e6c8     SimuEngine.obj
 0002:000006f8       ??_C@_0DD@LNEL@sq?5?$CFs?5not?5satisfied?5in?5step?3?5?$CFd?5@ 0042e6f8     SimuEngine.obj
 0002:0000072c       ??_C@_0DI@LHMP@sq?5?$CFs?5not?5satisfied?5in?5step?3?5?$CFd?5@ 0042e72c     SimuEngine.obj
 0002:00000764       ??_C@_0BL@IPBN@in?5GoOneStep?3?5?$CFs?5in?5ELSE?3?6?$AA@ 0042e764     SimuEngine.obj
 0002:00000780       ??_C@_0DP@LLED@in?5set?5TIMER?5Process?$CK?$CK?$CK?$CK?$CK?$CK?5?$CFs?5?$CK?$CK@ 0042e780     SimuEngine.obj
 0002:000007c0       ??_C@_0CO@ODNM@WAIT_FOR?5XX?3?5sq?5?$CFs?5?$CFd?5wait?5in?5st@ 0042e7c0     SimuEngine.obj
 0002:000007f0       ??_C@_0EJ@MNMP@in?5STOP_MODEL?$CK?$CK?$CK?$CK?$CK?$CK?5seq?5?$CFs?3?5?5ste@ 0042e7f0     SimuEngine.obj
 0002:0000083c       ??_C@_0DL@GLFA@in?5STOP_SEQUENCE?0?5?$CFs?$CK?$CK?$CK?$CK?$CK?$CK?$CK?$CK?$CK?$CK?$CK?$CK@ 0042e83c     SimuEngine.obj
 0002:00000878       ??_C@_0DD@KJAJ@?$CK?$CK?$CK?$CKbegin?5ActivateModelByName?3?$CFs@ 0042e878     SimuEngine.obj
 0002:000008ac       ??_C@_0DB@HEHK@?$CD?$CD?$CD?$CD?$CD?$CD?$CD?$CD?$CD?$CD?$CD?$CD?$CD?$CDChange?5Met?5sq?5name@ 0042e8ac     SimuEngine.obj
 0002:000008e0       ??_C@_0EF@PMHE@?$CD?$CD?$CD?$CD?$CD?$CD?$CD?$CD?$CD?$CD?$CD?$CD?$CD?$CDChange?5Met?5because@ 0042e8e0     SimuEngine.obj
 0002:00000928       ??_C@_0CI@MBJE@Err?3?5?$CFs?5isn?8t?5an?5ANALOG?5type?5var@ 0042e928     SimuEngine.obj
 0002:00000950       ??_C@_0DC@BDOB@?7in?5GoOneStep?3?5?$CFs?5isn?8t?5an?5ON_OF@ 0042e950     SimuEngine.obj
 0002:00000984       ??_C@_0DD@ODKE@sq?5name?5?$DN?$CFs?0?5step?5?$DN?$CFs?0?5entryname@ 0042e984     SimuEngine.obj
 0002:000009b8       ??_C@_0DH@LCFN@?6in?5GoOneStep?3?5?$FL?5entry?5?$CFd?5?$FN?5is?5n@ 0042e9b8     SimuEngine.obj
 0002:000009f0       ??_C@_0CH@IMAL@err?3?5sequence?5entry?5param?5def?5no@ 0042e9f0     SimuEngine.obj
 0002:00000a18       ??_C@_05DHIH@PARAM?$AA@    0042ea18     SimuEngine.obj
 0002:00000a20       __real@8@3ffba3d70a3d70a3d800 0042ea20     SimuEngine.obj
 0002:00000a28       ??_C@_0DK@LNML@time_cnt?3?$CF10?42f?7step_time?3?$CF10?42f@ 0042ea28     SimuEngine.obj
 0002:00000a64       __real@4@4008fa00000000000000 0042ea64     SimuEngine.obj
 0002:00000a68       __real@4@00000000000000000000 0042ea68     SimuEngine.obj
 0002:00000a6c       ??_C@_0EB@GAEL@in?5SequenceInitialize?3?5id?$DN?$CFd?5nam@ 0042ea6c     SimuEngine.obj
 0002:00000ab0       ??_C@_0BE@ELPA@Active?5Sequence?5?$CFs?6?$AA@ 0042eab0     SimuEngine.obj
 0002:00000ac4       ??_C@_04BAK@NULL?$AA@      0042eac4     SimuEngine.obj
 0002:00000acc       ??_C@_0CE@KGDN@in?5StopSequenceByName?3?5sq_name?$DN?5@ 0042eacc     SimuEngine.obj
 0002:00000af0       ??_C@_0BK@HCGP@can?8t?5get?5sequence?5id?5?$CFs?6?$AA@ 0042eaf0     SimuEngine.obj
 0002:00000b10       __real@8@4004f000000000000000 0042eb10     SimuEngine.obj
 0002:00000b18       __real@4@4005a000000000000000 0042eb18     SimuEngine.obj
 0002:00000b1c       ??_C@_0CE@JMKJ@?$CD?$CD?$CD?$CD?$CD?$CD?$CD?$CD?$CD?$CD?$CD?$CD?$CD?$CD?$CD?5model?5main?3?5k?5?$DN?5@ 0042eb1c     SimuEngine.obj
 0002:00000b40       __real@4@4006c800000000000000 0042eb40     SimuEngine.obj
 0002:00000b44       ??_C@_0CK@PFJF@?$CD?$CD?$CD?$CD?$CD?$CD?$CD?$CD?$CD?$CD?$CD?$CD?$CD?$CD?$CD?5seq?5logical?5main@ 0042eb44     SimuEngine.obj
 0002:00000b70       ??_C@_0CF@EHPC@?$CD?$CD?$CD?$CD?$CD?$CD?$CD?$CD?$CD?$CD?$CD?$CD?$CD?$CD?$CD?5first_time_run?5?$DN@ 0042eb70     SimuEngine.obj
 0002:00000b98       __real@8@400bccd8000000000000 0042eb98     SimuEngine.obj
 0002:00000ba0       ??_C@_0BD@JFIN@resume?5simulog?4?4?4?6?$AA@ 0042eba0     SimuEngine.obj
 0002:00000bb4       ??_C@_0BC@NNME@pause?5simulog?4?4?4?6?$AA@ 0042ebb4     SimuEngine.obj
 0002:00000bc8       ??_C@_0BM@JOAJ@?$CD?$CD?$CD?$CD?$CD?$CD?$CD?$CD?$CD?$CD?$CD?$CD?$CD?$CD?$CDrunflag?$DN?$CFd?5?6?$AA@ 0042ebc8     SimuEngine.obj
 0002:00000be4       ??_C@_0BM@MDEB@?$CD?$CD?$CD?$CD?$CD?$CD?$CD?$CD?$CD?$CD?$CD?$CD?$CD?$CD?$CDchg_any?$DN?$CFd?5?6?$AA@ 0042ebe4     SimuEngine.obj
 0002:00000c00       __real@4@40028000000000000000 0042ec00     SimuEngine.obj
 0002:00000c04       ??_C@_0CC@DDLG@?$CD?$CD?$CD?$CD?$CD?$CD?$CD?$CD?$CD?$CD?$CD?$CD?$CD?$CD?$CD?5seq?5main?3?5j?5?$DN?5?$CFd@ 0042ec04     SimuEngine.obj
 0002:00000c28       ??_C@_0BB@KED@stop?5simulog?4?4?4?6?$AA@ 0042ec28     SimuEngine.obj
 0002:00000c3c       ??_C@_0CH@GKPP@group?$DN?$CFd?5?5entry?$DN?$CFd?5?$CFs?5not?5find?5i@ 0042ec3c     SimuEngine.obj
 0002:00000c64       ??_C@_0CP@DOLI@time_cnt?3?$CF10?42f?7step_time?3?$CF10?42f@ 0042ec64     SimuEngine.obj
 0002:00000c94       ??_C@_0CH@DBHC@in?5SetTimerByID?3?5timer_id?$DN?5?$CFd?7rt@ 0042ec94     timer_task.obj
 0002:00000cbc       ??_C@_0BP@GMGG@in?5SetTimerByID?3?5timer_id?$DN?5?$CFd?6?$AA@ 0042ecbc     timer_task.obj
 0002:00000cdc       ??_C@_0CD@NFDC@in?5ActivateTimedTask?5?$CImodel?$CJ?3?5?$CFs@ 0042ecdc     timer_task.obj
 0002:00000d00       ??_C@_0CG@IAKN@in?5ActivateTimedTask?5?$CISequence?$CJ?3@ 0042ed00     timer_task.obj
 0002:00000d28       ??_C@_05EKLJ@NETB_?$AA@    0042ed28     lan:commonlib.obj
 0002:00000d30       ??_C@_05HBEG@NETA_?$AA@    0042ed30     lan:commonlib.obj
 0002:00000d38       ??_C@_0CD@HFGG@lanlib?3?5plc?5?$CFd?4?$CFd?5ipnum?5?$DN?$CFd?5erro@ 0042ed38     lan:commonlib.obj
 0002:00000d5c       ??_C@_03JGPL@RTP?$AA@      0042ed5c     lan:commonlib.obj
 0002:00000d60       ??_C@_0BO@JAKK@GetEmsConfig?$CI?$CJ?3stnId?5?$DN?$CFd?5err?6?$AA@ 0042ed60     lan:commonlib.obj
 0002:00000d80       ??_C@_09FCOK@127?40?40?41?$AA@ 0042ed80     lan:commonlib.obj
 0002:00000d8c       ??_C@_0BO@CPLF@error?3?5Get?5Brdcst?5Ip?5failed?5?6?$AA@ 0042ed8c     lan:commonlib.obj
 0002:00000dac       ??_C@_0CA@CDGM@error?3?5CtrlNetNum?5?$DN?$CFd?5invalid?5?6?$AA@ 0042edac     lan:commonlib.obj
 0002:00000dcc       ??_C@_0BP@ONIM@error?3?5SysNetNum?5?$DN?$CFd?5invalid?5?6?$AA@ 0042edcc     lan:commonlib.obj
 0002:00000dec       ??_C@_0CK@MMKE@ClearCommShm?$CI?$CJ?3?5WaitforSem?5retur@ 0042edec     lan:commonlib.obj
 0002:00000e18       ??_C@_0BL@MCLJ@ClearCommShm?$CI?$CJ?3id?5?$DN?$CFd?5err?6?$AA@ 0042ee18     lan:commonlib.obj
 0002:00000e34       ??_C@_03PIHE@END?$AA@      0042ee34     lan:commonlib.obj
 0002:00000e38       ??_C@_0L@DNMF@SIMUSERVER?$AA@ 0042ee38     lan:commonlib.obj
 0002:00000e44       ??_C@_0BE@CBJM@HOSTADDRESSFORMYSQL?$AA@ 0042ee44     lan:commonlib.obj
 0002:00000e58       ??_C@_09FEFL@IPWITHCPU?$AA@ 0042ee58     lan:commonlib.obj
 0002:00000e64       ??_C@_07GMAC@GRP_BRD?$AA@  0042ee64     lan:commonlib.obj
 0002:00000e6c       ??_C@_08LDID@SIMUMODE?$AA@ 0042ee6c     lan:commonlib.obj
 0002:00000e78       ??_C@_08DDNJ@SYNCTIME?$AA@ 0042ee78     lan:commonlib.obj
 0002:00000e84       ??_C@_08BNKE@WROFFSET?$AA@ 0042ee84     lan:commonlib.obj
 0002:00000e90       ??_C@_06GGLP@WRCOND?$AA@   0042ee90     lan:commonlib.obj
 0002:00000e98       ??_C@_09PBCP@WRANYHOST?$AA@ 0042ee98     lan:commonlib.obj
 0002:00000ea4       ??_C@_02MECO@?$CFd?$AA@    0042eea4     lan:commonlib.obj
 0002:00000ea8       ??_C@_0M@NNJ@UPDATEFIRST?$AA@ 0042eea8     lan:commonlib.obj
 0002:00000eb4       ??_C@_03FEDM@SID?$AA@      0042eeb4     lan:commonlib.obj
 0002:00000eb8       ??_C@_05JBBL@BEGIN?$AA@    0042eeb8     lan:commonlib.obj
 0002:00000ec0       ??_C@_02DILL@?$CFs?$AA@    0042eec0     lan:commonlib.obj
 0002:00000ec4       ??_C@_0CD@DONG@?$DN?$DN?$DN?$DN?5can?8t?5open?5?$CIw?$CJ?5the?5file?5?$CFs?$CB@ 0042eec4     lan:commonlib.obj
 0002:00000ee8       ??_C@_01LHO@r?$AA@         0042eee8     lan:commonlib.obj
 0002:00000eec       ??_C@_05JEDD@HISTA?$AA@    0042eeec     lan:commonlib.obj
 0002:00000ef4       ??_C@_0CC@FOJN@?1home?1ems?1h9000?1def?1appconfig?4de@ 0042eef4     lan:commonlib.obj
 0002:00000f18       ??_C@_0DG@FIEF@?6commonlib?4c?3?3?$CFs?5No?5this?5point?5i@ 0042ef18     lan:commonlib.obj
 0002:00000f50       ??_C@_0BA@ELFG@?4SYS?4NET_WK_STA?$AA@ 0042ef50     lan:commonlib.obj
 0002:00000f60       ??_C@_0CE@PKE@?6rdb?4c?3?3?5Rdb_net?5devid?5?$DN?$CFd?5?5erro@ 0042ef60     lan:commonlib.obj
 0002:00000f84       ??_C@_0BA@CCEL@?4SYS?4CPU_WK_STA?$AA@ 0042ef84     lan:commonlib.obj
 0002:00000f94       ??_C@_0CK@IIEB@?6commonlib?4c?3?3?5rdb_cpu?5devid?5?$DN?$CFd@ 0042ef94     lan:commonlib.obj
 0002:00000fc0       ??_C@_0BO@GECG@No?5this?5point?5?$CFs?5in?5database?6?$AA@ 0042efc0     lan:commonlib.obj
 0002:00000fe0       ??_C@_0BL@LJDO@No?5this?5point?5in?5database?6?$AA@ 0042efe0     lan:commonlib.obj
 0002:00000ffc       ??_C@_0CG@EFHJ@BdcastMsg?3?3?5pt?5?$CFd?4?$CFd?4?$CFd?4?$CFd?5statu@ 0042effc     lan:commonlib.obj
 0002:00001024       ??_C@_0CD@LKGA@BdcastQlt?3?3?5pt?5?$CFd?4?$CFd?4?$CFd?4?$CFd?5qlt?$DN?$CF@ 0042f024     lan:commonlib.obj
 0002:00001048       ??_C@_0CG@LHLN@BdcastQltObj?3?3?5pt?5?$CFd?4?$CFd?4?$CFd?4?$CFd?5ql@ 0042f048     lan:commonlib.obj
 0002:00001070       ??_C@_0CC@CHCL@BdOBJ?3?3?5pt?5?$CFd?4?$CFd?4?$CFd?4?$CFd?5status?$DN?$CFd@ 0042f070     lan:commonlib.obj
 0002:00001094       ??_C@_0CC@KMMN@BdIND?3?3?5pt?5?$CFd?4?$CFd?4?$CFd?4?$CFd?5status?$DN?$CFd@ 0042f094     lan:commonlib.obj
 0002:000010b8       ??_C@_0BB@GDOI@WrANA?5?$CFs?5?$DN?5?$CF?43f?6?$AA@ 0042f0b8     lan:commonlib.obj
 0002:000010d0       __real@8@bff583126e978d4fe000 0042f0d0     lan:commonlib.obj
 0002:000010d8       __real@8@3ff583126e978d4fe000 0042f0d8     lan:commonlib.obj
 0002:000010e0       ??_C@_0CJ@IFNO@?6in?5WrAna?3?5?$CFs?5is?5not?5found?5in?5da@ 0042f0e0     lan:commonlib.obj
 0002:0000110c       ??_C@_0CJ@MLKK@?6in?5WrInd?3?5?$CFs?5is?5not?5found?5in?5da@ 0042f10c     lan:commonlib.obj
 0002:00001138       ??_C@_0BO@DADI@BdINDByName?3?5pt?5?$CFs?5not?5found?6?$AA@ 0042f138     lan:commonlib.obj
 0002:00001158       ??_C@_0BO@BAL@BdANAByName?3?5pt?5?$CFs?5not?5found?6?$AA@ 0042f158     lan:commonlib.obj
 0002:00001178       ??_C@_06LDDL@SYSTEM?$AA@   0042f178     lan:commonlib.obj
 0002:00001180       ??_C@_08CBN@?$CFs?4?$CFs?4?$CFs?$AA@ 0042f180     lan:commonlib.obj
 0002:0000118c       ??_C@_0P@IFJP@SYS?4NET_WK_STA?$AA@ 0042f18c     lan:commonlib.obj
 0002:0000119c       ??_C@_0P@OMIC@SYS?4CPU_WK_STA?$AA@ 0042f19c     lan:commonlib.obj
 0002:000011ac       ??_C@_0BD@FMPE@?4SYS?4LCU_ONOFF_STA?$AA@ 0042f1ac     lan:commonlib.obj
 0002:000011c0       ??_C@_0O@HPBB@?4SYS?4LINK_STA?$AA@ 0042f1c0     lan:commonlib.obj
 0002:000011d0       ??_C@_0O@IBC@?4SYS?4SCAN_STA?$AA@ 0042f1d0     lan:commonlib.obj
 0002:000011e0       ??_C@_0CA@FHIK@BdScanHost?$CI?$CJ?3?5srcid?5?$DN?$CFd?5invalid?$AA@ 0042f1e0     lan:commonlib.obj
 0002:00001200       ??_C@_0P@LBLL@?4SYS?4SCAN_HOST?$AA@ 0042f200     lan:commonlib.obj
 0002:00001210       ??_C@_0N@NMJM@SYS?4CPUB_STA?$AA@ 0042f210     lan:commonlib.obj
 0002:00001220       ??_C@_0N@DMPD@SYS?4CPUA_STA?$AA@ 0042f220     lan:commonlib.obj
 0002:00001230       ??_C@_0CE@KJOJ@WriteScanHost?$CI?$CJ?3?5hostid?5?$DN?$CFd?5inva@ 0042f230     lan:commonlib.obj
 0002:00001254       ??_C@_0CC@LFPE@BdPlcMonHost?$CI?$CJ?3?5srcid?5?$DN?$CFd?5invali@ 0042f254     lan:commonlib.obj
 0002:00001278       ??_C@_0BC@PPPB@?4SYS?4LCU_MON_HOST?$AA@ 0042f278     lan:commonlib.obj
 0002:0000128c       ??_C@_0P@CFOP@?4SYS?4HISTA_STA?$AA@ 0042f28c     lan:commonlib.obj
 0002:0000129c       ??_C@_0CG@NCGL@commonlib?4c?3?5sms?5length?5?$DN?$CFd?5inva@ 0042f29c     lan:commonlib.obj
 0002:000012c4       ??_C@_0DA@2commonlib?4c?3?5sms?5length?5?$DN?$CFd?5too?5@ 0042f2c4     lan:commonlib.obj
 0002:000012f4       ??_C@_0CH@LDCL@signal?5INT?5or?5TRRM?5or?5KILL?5?9?9?0ex@ 0042f2f4     lan:commonlib.obj
 0002:0000131c       ??_C@_03IHMC@?$CFd?3?$AA@  0042f31c     lan:commonlib.obj
 0002:00001320       ??_C@_03CPCE@?$CFd?5?$AA@  0042f320     lan:commonlib.obj
 0002:00001324       ??_C@_03HLFH@?$CFd?9?$AA@  0042f324     lan:commonlib.obj
 0002:00001328       ??_C@_0P@JHCN@?$CFs?5?$CFs?5?$CFs?5?$CFs?5?$CFs?$AA@ 0042f328     lan:commonlib.obj
 0002:00001338       ??_C@_01FIMD@?$FN?$AA@     0042f338     lan:commonlib.obj
 0002:0000133c       ??_C@_01KHLB@?$FL?$AA@     0042f33c     lan:commonlib.obj
 0002:00001340       ??_C@_0CD@KNPF@?1home?1ems?1h9000?1def?1ipc_config?4d@ 0042f340     lan:commonlib.obj
 0002:00001364       ??_C@_07JFPH@?9errlog?$AA@ 0042f364     lan:commonlib.obj
 0002:0000136c       ??_C@_0BN@LHK@?6WSAStartup?3?3?5?$CFd?5is?5the?5err?6?$AA@ 0042f36c     lan:lanlib.obj
 0002:0000138c       ??_C@_0CF@HFHD@lanlib?4c?3?5call?5GetEmsConfig?$CI?$CJ?5er@ 0042f38c     lan:lanlib.obj
 0002:000013b4       ??_C@_0CP@LHIE@lan_out?$CI?$CJ?3?5WaitforSem?5return?5?91?5@ 0042f3b4     lan:lanlib.obj
 0002:000013e4       ??_C@_02EMOB@AB?$AA@       0042f3e4     lan:lanlib.obj
 0002:000013e8       ??_C@_07IICE@PREMIUM?$AA@  0042f3e8     lan:lanlib.obj
 0002:000013f0       ??_C@_07KCB@QUANTUM?$AA@   0042f3f0     lan:lanlib.obj
 0002:000013f8       ??_C@_07IMCO@SIEMENS?$AA@  0042f3f8     lan:lanlib.obj
 0002:00001400       ??_C@_02GOPL@GE?$AA@       0042f400     lan:lanlib.obj
 0002:00001404       ??_C@_0CO@JNFK@lanlib?4c?5?3?5call?5GetPlcTypeStr?$CI?$CFd@ 0042f404     lan:lanlib.obj
 0002:00001434       ??_C@_0BI@NCKK@head?5length?$DN?$CFd?5?5error?5?6?$AA@ 0042f434     lan:lanlib.obj
 0002:0000144c       ??_C@_0BJ@BHA@InitPlcDataShm?$CI?$CJfailed?$CB?6?$AA@ 0042f44c     lan:lanlib.obj
 0002:00001468       ??_C@_0DK@KNBO@InitPlcDataShm?$CI?$CJfailed?$CB?0the?5lcu?5@ 0042f468     lan:lanlib.obj
 0002:000014a4       ??_C@_0DI@PEBL@InitPlcDataShm?$CI?$CJ?3?5call?5GetGroupN@ 0042f4a4     lan:lanlib.obj
 0002:000014dc       ??_C@_0CM@PMEK@InitPlcDataShm?$CI?$CJ?3?5call?5GetStatio@ 0042f4dc     lan:lanlib.obj
 0002:00001508       ??_C@_0DL@EEKI@InitPlcDataShm?$CI?$CJ?3?5error?0shm_plc_@ 0042f508     lan:lanlib.obj
 0002:00001544       ??_C@_0DC@FBMK@?6lan_lib?4c?3?3Error?5in?5?5MapViewFil@ 0042f544     lan:lanlib.obj
 0002:00001578       ??_C@_0DG@HHK@?6lan_lib?4c?3?3Error?5in?5?5OpenFileMa@ 0042f578     lan:lanlib.obj
 0002:000015b0       ??_C@_0DB@LBLK@?6lan_lib?4c?3?3Error?5in?5?5MapViewFil@ 0042f5b0     lan:lanlib.obj
 0002:000015e4       ??_C@_0DF@MEDO@?6lan_lib?4c?3?3Error?5in?5?5OpenFileMa@ 0042f5e4     lan:lanlib.obj
 0002:0000161c       ??_C@_0DD@MHKE@?6lan_lib?4c?3?3Error?5in?5?5MapViewFil@ 0042f61c     lan:lanlib.obj
 0002:00001650       ??_C@_0DG@BMBL@?6lan_lib?4c?3?3Error?5in?5?5OpenFileMa@ 0042f650     lan:lanlib.obj
 0002:00001688       ??_C@_0DD@MEIF@?6lan_lib?4c?3?3Error?5in?5?5MapViewFil@ 0042f688     lan:lanlib.obj
 0002:000016bc       ??_C@_0DG@DNAJ@?6lan_lib?4c?3?3Error?5in?5?5OpenFileMa@ 0042f6bc     lan:lanlib.obj
 0002:000016f4       ??_C@_0M@NNFA@SHM_NAME_?$CFc?$AA@ 0042f6f4     lan:lanlib.obj
 0002:00001700       ??_C@_0DE@NGIL@?6get_lcu_shm?3?3Error?5MapViewOfFil@ 0042f700     lan:lanlib.obj
 0002:00001734       ??_C@_0DG@BEPD@?6get_lcu_shm?3?3Error?5OpenFileMapp@ 0042f734     lan:lanlib.obj
 0002:0000176c       ??_C@_0DD@GIKI@?6get_lcu_shm?3?3Error?5MapViewOfFil@ 0042f76c     lan:lanlib.obj
 0002:000017a0       ??_C@_0DF@BADO@?6get_lcu_shm?3?3Error?5OpenFileMapp@ 0042f7a0     lan:lanlib.obj
 0002:000017d8       ??_C@_0DE@JOLH@?6get_lcu_shm?3?3Error?5MapViewOfFil@ 0042f7d8     lan:lanlib.obj
 0002:0000180c       ??_C@_0DG@FMMP@?6get_lcu_shm?3?3Error?5OpenFileMapp@ 0042f80c     lan:lanlib.obj
 0002:00001844       ??_C@_0DE@IJLK@?6get_rec_shm?3?3Error?5MapViewOfFil@ 0042f844     lan:lanlib.obj
 0002:00001878       ??_C@_0DB@HMAB@?6get_rec_shm?3?3Error?5OpenFileMapp@ 0042f878     lan:lanlib.obj
 0002:000018ac       ??_C@_0DE@CJN@?6get_hdb_shm?3?3Error?5MapViewOfFil@ 0042f8ac     lan:lanlib.obj
 0002:000018e0       ??_C@_0DB@LBP@?6get_hdb_shm?3?3Error?5OpenFileMapp@ 0042f8e0     lan:lanlib.obj
 0002:00001914       ??_C@_0DE@DBGF@?6get_ots_shm?3?3Error?5MapViewOfFil@ 0042f914     lan:lanlib.obj
 0002:00001948       ??_C@_0DB@DOLC@?6get_ots_shm?3?3Error?5OpenFileMapp@ 0042f948     lan:lanlib.obj
 0002:0000197c       ??_C@_09NPKD@?6?$CFs?3?5OK?$CB?6?$AA@ 0042f97c     lan:lanlib.obj
 0002:00001988       ??_C@_0CC@NEBI@Error?5in?5CreateFileMapping?5?$CFs?3?$CFd@ 0042f988     lan:lanlib.obj
 0002:000019ac       ??_C@_0CA@HLHM@No?5such?5station?5index?5in?5db?3?5?$CFd?$AA@ 0042f9ac     ipclib:ReadDatabase.obj
 0002:000019cc       ??_C@_0BJ@ECOB@No?5such?5a?5station?5id?3?5?$CFd?$AA@ 0042f9cc     ipclib:ReadDatabase.obj
 0002:000019e8       ??_C@_0BG@PIIA@No?5such?5a?5station?3?5?$CFs?$AA@ 0042f9e8     ipclib:ReadDatabase.obj
 0002:00001a00       ??_C@_0BD@KKBG@Station?5name?5empty?$AA@ 0042fa00     ipclib:ReadDatabase.obj
 0002:00001a14       ??_C@_0BE@JHOK@No?5such?5a?5group?3?5?$CFd?$AA@ 0042fa14     ipclib:ReadDatabase.obj
 0002:00001a28       ??_C@_0BH@OBGA@No?5such?5a?5group?3?5?$CFd?9?$CFs?$AA@ 0042fa28     ipclib:ReadDatabase.obj
 0002:00001a40       ??_C@_0BB@MAND@group?5name?5empty?$AA@ 0042fa40     ipclib:ReadDatabase.obj
 0002:00001a54       ??_C@_0CB@EHOK@Fail?5to?5find?5LCU?$CFd?4?$CFd?5ioGroup?5?$CFd@ 0042fa54     ipclib:ReadDatabase.obj
 0002:00001a78       ??_C@_0DH@MGBP@ioGroup?5index?5?$CFd?5is?5overrange?3?5L@ 0042fa78     ipclib:ReadDatabase.obj
 0002:00001ab0       ??_C@_0CC@GELE@Fail?5to?5find?5ioGroup?5?$CFd?3?5LCU?$CFd?4?$CF@ 0042fab0     ipclib:ReadDatabase.obj
 0002:00001ad4       ??_C@_0BN@PIGJ@No?5such?5a?5point?3?5?$CFd?9?$CFd?9?$CFd?9?$CFd?$AA@ 0042fad4     ipclib:ReadDatabase.obj
 0002:00001af4       ??_C@_0BE@IFAH@No?5such?5a?5point?3?5?$CFs?$AA@ 0042faf4     ipclib:ReadDatabase.obj
 0002:00001b08       ??_C@_0BH@FKPD@Entry?5hash?5table?5error?$AA@ 0042fb08     ipclib:ReadDatabase.obj
 0002:00001b20       ??_C@_0BN@PMME@No?5such?5a?5point?3?5?$CFd?4?$CFd?4?$CFd?9?$CFs?$AA@ 0042fb20     ipclib:ReadDatabase.obj
 0002:00001b40       ??_C@_0EH@GFID@ioGroup?5?$CFd?5dose?5not?5support?5ioGr@ 0042fb40     ipclib:ReadPoint.obj
 0002:00001b88       ??_C@_0BE@LHMP@data_type?5error?3?5?$CFd?$AA@ 0042fb88     ipclib:ReadPoint.obj
 0002:00001b9c       ??_C@_0CB@DLCF@Not?5soe?1pol?1outs?1sysmsg?5type?3?5?$CFd@ 0042fb9c     ipclib:ReadPoint.obj
 0002:00001bc0       ??_C@_0CB@LNLD@Not?5ana?1outa?1calc?1param?5type?3?5?$CFd@ 0042fbc0     ipclib:ReadPoint.obj
 0002:00001be4       ??_C@_0BB@ONNA@Not?5imp?5type?3?5?$CFd?$AA@ 0042fbe4     ipclib:ReadPoint.obj
 0002:00001bf8       ??_C@_05LJBM@GVarh?$AA@    0042fbf8     ipclib:ReadPoint.obj
 0002:00001c00       ??_C@_05PIHM@MVarh?$AA@    0042fc00     ipclib:ReadPoint.obj
 0002:00001c08       ??_C@_05DMAJ@kVarh?$AA@    0042fc08     ipclib:ReadPoint.obj
 0002:00001c10       ??_C@_04NALC@Varh?$AA@     0042fc10     ipclib:ReadPoint.obj
 0002:00001c18       ??_C@_0BD@OIKF@imp?5rate?5error?3?5?$CFd?$AA@ 0042fc18     ipclib:ReadPoint.obj
 0002:00001c2c       ??_C@_03DJAK@GWh?$AA@      0042fc2c     ipclib:ReadPoint.obj
 0002:00001c30       ??_C@_03NJC@MWh?$AA@       0042fc30     ipclib:ReadPoint.obj
 0002:00001c34       ??_C@_03KDDA@kWh?$AA@      0042fc34     ipclib:ReadPoint.obj
 0002:00001c38       ??_C@_02CMB@Wh?$AA@        0042fc38     ipclib:ReadPoint.obj
 0002:00001c3c       ??_C@_0BN@JOHE@imp?5statistic?5type?5error?3?5?$CFd?$AA@ 0042fc3c     ipclib:ReadPoint.obj
 0002:00001c5c       ??_C@_0BD@PKFB@Not?5chara?5type?3?5?$CFd?$AA@ 0042fc5c     ipclib:ReadPoint.obj
 0002:00001c70       ??_C@_0BE@EEJC@state?5overrange?3?5?$CFd?$AA@ 0042fc70     ipclib:ReadPoint.obj
 0002:00001c84       ??_C@_0CD@OHAA@Failed?5to?5find?5the?5cmdType?5msg?3?5@ 0042fc84     ipclib:ReadPoint.obj
 0002:00001ca8       ??_C@_0BP@HMDD@Cmd?5opt?5is?5overrange?$CI0?$HO63?$CJ?3?5?$CFd?$AA@ 0042fca8     ipclib:ReadPoint.obj
 0002:00001cc8       ??_C@_0BD@IOJL@Not?5curve?5type?3?5?$CFd?$AA@ 0042fcc8     ipclib:ReadPoint.obj
 0002:00001cdc       ??_C@_0BE@GIFL@Not?5devobj?5type?3?5?$CFd?$AA@ 0042fcdc     ipclib:ReadPoint.obj
 0002:00001cf0       ??_C@_0BC@MJOP@Not?5time?5type?3?5?$CFd?$AA@ 0042fcf0     ipclib:ReadPoint.obj
 0002:00001d04       ??_C@_0CB@HKPO@Unsupported?5chara?5value?5type?3?5?$CFs@ 0042fd04     ipclib:ReadPoint.obj
 0002:00001d28       ??_C@_09MGEE@MIN_VALUE?$AA@ 0042fd28     ipclib:ReadPoint.obj
 0002:00001d34       ??_C@_09IJBH@MAX_VALUE?$AA@ 0042fd34     ipclib:ReadPoint.obj
 0002:00001d40       ??_C@_0CB@JII@Only?5chara?5type?5is?5supported?3?5?$CFs@ 0042fd40     ipclib:ReadPoint.obj
 0002:00001d64       ??_C@_0BK@NLFL@Unsupported?5data?5type?3?5?$CFs?$AA@ 0042fd64     ipclib:ReadPoint.obj
 0002:00001d80       ??_C@_0CK@KBIA@GetPtDataByStr?3?5parameter?5is?5emp@ 0042fd80     ipclib:ReadPoint.obj
 0002:00001dac       ??_C@_0BP@BHBC@module?5id?5?$CFd?5error?3?5range?51?$HO?$CFd?$AA@ 0042fdac     ipclib:syslog.obj
 0002:00001dcc       ??_C@_03MJMD@ALL?$AA@      0042fdcc     ipclib:syslog.obj
 0002:00001dd0       ??_C@_0CP@FIMJ@set?5module?5id?5?$CFd?5error?3?5range?51?$HO@ 0042fdd0     ipclib:syslog.obj
 0002:00001e00       ??_C@_0CD@KDFC@Fail?5to?5link?5log?5record?5semaphor@ 0042fe00     ipclib:syslog.obj
 0002:00001e24       ??_C@_0BM@FJOG@Fail?5to?5link?5log?5record?5shm?$AA@ 0042fe24     ipclib:syslog.obj
 0002:00001e40       ??_C@_0BP@DCEA@module?5id?5?$CFd?5error?3?5range?50?$HO?$CFd?$AA@ 0042fe40     ipclib:syslog.obj
 0002:00001e60       ??_C@_09DIMP@?6?$CFs?5?$CFs?5?$CFs?$AA@ 0042fe60     ipclib:syslog.obj
 0002:00001e6c       ??_C@_0CD@LPNH@?6?N?$NO?$LK?O?$LH?$KI?J?Z?H?$KI?N?D?$LM?$PO?0?5H9000?O?$LF?M?$LD?N?$NO?$LH?$KI?T?K@ 0042fe6c     ipclib:MountDB.obj
 0002:00001e90       ??_C@_06KKCN@?$CFs?$CFs?$CFs?$AA@ 0042fe90     ipclib:MountDB.obj
 0002:00001e98       ??_C@_0M@JCOK@?$CFs?5?$CFs?5?$CFs?5?$CFs?$AA@ 0042fe98     ipclib:MountDB.obj
 0002:00001ea4       ??_C@_0BA@CDFN@Fail?5to?5open?5?$CFs?$AA@ 0042fea4     ipclib:MountDB.obj
 0002:00001eb4       ??_C@_04DCMN@?$CFs?$CFs?$AA@ 0042feb4     ipclib:MountDB.obj
 0002:00001ebc       ??_C@_0BF@MLFF@?2home?2ems?2h9000?2def?2?$AA@ 0042febc     ipclib:MountDB.obj
 0002:00001ed4       ??_C@_0BC@LCBG@h9000_license?4def?$AA@ 0042fed4     ipclib:MountDB.obj
 0002:00001ee8       ??_C@_0BE@IDOA@Fail?5to?5gethostname?$AA@ 0042fee8     ipclib:MountDB.obj
 0002:00001efc       ??_C@_0BC@HINB@Failed?5to?5load?5?$CFs?$AA@ 0042fefc     ipclib:MountDB.obj
 0002:00001f10       ??_C@_0BM@BHKP@Fail?5to?5mount?5database?5file?$AA@ 0042ff10     ipclib:MountDB.obj
 0002:00001f2c       ??_C@_09GCAA@?4?4?2def?2?$CFs?$AA@ 0042ff2c     ipclib:MountDB.obj
 0002:00001f38       ??_C@_09PNBA@?4?4?2dat?2?$CFs?$AA@ 0042ff38     ipclib:MountDB.obj
 0002:00001f44       ??_C@_02NFKO@?3?2?$AA@     0042ff44     ipclib:MountDB.obj
 0002:00001f48       ??_C@_0P@KANB@ems_config?4def?$AA@ 0042ff48     ipclib:MountDB.obj
 0002:00001f58       ??_C@_0BF@MEPD@?2home?2ems?2h9000?2dat?2?$AA@ 0042ff58     ipclib:MountDB.obj
 0002:00001f70       ??_C@_0N@IMCA@DATABASE?4OUT?$AA@ 0042ff70     ipclib:MountDB.obj
 0002:00001f80       ??_C@_0BC@GMKO@CreateFile?5failed?$AA@ 0042ff80     ipclib:MountDB.obj
 0002:00001f94       ??_C@_0BJ@CMFA@CreateFileMapping?5failed?$AA@ 0042ff94     ipclib:MountDB.obj
 0002:00001fb0       ??_C@_0BF@MCHD@MapViewOfFile?5failed?$AA@ 0042ffb0     ipclib:MountDB.obj
 0002:00001fc8       ??_C@_0BH@HNDA@OpenFileMapping?5failed?$AA@ 0042ffc8     ipclib:MountDB.obj
 0002:00001fe0       ??_C@_0BI@OOCO@Fail?5ot?5mapview?5file?5?$CFs?$AA@ 0042ffe0     ipclib:MountDB.obj
 0002:00001ff8       ??_C@_0BE@KJDN@Fail?5ot?5map?5file?5?$CFs?$AA@ 0042fff8     ipclib:MountDB.obj
 0002:0000200c       ??_C@_0CH@BEKE@file?5?$CFs?5length?5error?3?5file?5?$CFd?0?5n@ 0043000c     ipclib:MountDB.obj
 0002:00002034       ??_C@_0M@KBBI@?$CFs?4?$CFs?4?$CFs?4?$CFs?$AA@ 00430034     ipclib:dms_util.obj
 0002:00002040       ??_C@_0CD@BGKL@?$CFs?5name?5too?5long?5in?5point?5name?3?5@ 00430040     ipclib:dms_util.obj
 0002:00002064       ??_C@_0BF@CHDF@point?5name?5error?3?5?$CFs?$AA@ 00430064     ipclib:dms_util.obj
 0002:0000207c       ??_C@_0CA@HL@?$CFs?5name?5empty?5in?5point?5name?3?5?$CFs?$AA@ 0043007c     ipclib:dms_util.obj
 0002:0000209c       ??_C@_0BF@OJOM@point?5name?5empty?3?5?$CFs?$AA@ 0043009c     ipclib:dms_util.obj
 0002:000020b4       ??_C@_05BAMO@entry?$AA@    004300b4     ipclib:dms_util.obj
 0002:000020bc       ??_C@_06JNOM@record?$AA@   004300bc     ipclib:dms_util.obj
 0002:000020c4       ??_C@_05GCOD@group?$AA@    004300c4     ipclib:dms_util.obj
 0002:000020cc       ??_C@_07FMAC@station?$AA@  004300cc     ipclib:dms_util.obj
 0002:000020d4       ??_C@_0BE@MKLH@?6Invalid?5point?5name?$AA@ 004300d4     ipclib:dms_util.obj
 0002:000020e8       ??_C@_0CD@FCBL@?$CF04d?9?$CF02d?9?$CF02d?5?$CF02d?3?$CF02d?3?$CF02d?4?$CF0@ 004300e8     ipclib:dms_util.obj
 0002:0000210c       ??_C@_0BE@DDIC@?$CF02d?3?$CF02d?3?$CF02d?4?$CF03d?$AA@ 0043010c     ipclib:dms_util.obj
 0002:00002120       ??_C@_07FEFP@?6?$CFs?3?5?$CFs?$AA@ 00430120     ipclib:dms_util.obj
 0002:00002128       ??_C@_04GKDJ@?$FL?$CFs?$FN?$AA@ 00430128     ipclib:LoadEmsDefine.obj
 0002:00002130       ??_C@_04OMGO@END?6?$AA@    00430130     ipclib:LoadEmsDefine.obj
 0002:00002138       ??_C@_0CA@PGLF@string?5value?5too?5long?5in?5?$CFs?3?5?$CFs?$AA@ 00430138     ipclib:LoadEmsDefine.obj
 0002:00002158       ??_C@_0BP@LEMN@string?5name?5too?5long?5in?5?$CFs?3?5?$CFs?$AA@ 00430158     ipclib:LoadEmsDefine.obj
 0002:00002178       ??_C@_0CB@JMBD@Too?5much?5string?5define?5in?5?$CFs?3?5?$CFs@ 00430178     ipclib:LoadEmsDefine.obj
 0002:0000219c       ??_C@_0L@DIGO@EMS_STRING?$AA@ 0043019c     ipclib:LoadEmsDefine.obj
 0002:000021a8       ??_C@_0BP@PHDL@variable?5value?5error?5in?5?$CFs?3?5?$CFs?$AA@ 004301a8     ipclib:LoadEmsDefine.obj
 0002:000021c8       ??_C@_0CB@IPHI@variable?5name?5too?5long?5in?5?$CFs?3?5?$CFs@ 004301c8     ipclib:LoadEmsDefine.obj
 0002:000021ec       ??_C@_0CD@BIMF@Too?5much?5variable?5define?5in?5?$CFs?3?5@ 004301ec     ipclib:LoadEmsDefine.obj
 0002:00002210       ??_C@_0N@NDFL@EMS_VARIABLE?$AA@ 00430210     ipclib:LoadEmsDefine.obj
 0002:00002220       ??_C@_0BN@MHBG@OPER_CHARACTER_CURVE_DISABLE?$AA@ 00430220     ipclib:LoadEmsDefine.obj
 0002:00002240       ??_C@_0BN@FPPI@GEN_POWER_PLAN_CURVE_DISABLE?$AA@ 00430240     ipclib:LoadEmsDefine.obj
 0002:00002260       ??_C@_0P@ODOO@INFO_REC_TABLE?$AA@ 00430260     ipclib:LoadEmsDefine.obj
 0002:00002270       ??_C@_0BA@FMFF@HIS_RDB_DISABLE?$AA@ 00430270     ipclib:LoadEmsDefine.obj
 0002:00002280       ??_C@_0BA@FKDM@DEV_OBJ_DISABLE?$AA@ 00430280     ipclib:LoadEmsDefine.obj
 0002:00002290       ??_C@_0BC@IHON@IO_FORCE_DISLABLE?$AA@ 00430290     ipclib:LoadEmsDefine.obj
 0002:000022a4       ??_C@_0BC@IHCJ@CTRL_NET_INDEPEND?$AA@ 004302a4     ipclib:LoadEmsDefine.obj
 0002:000022b8       ??_C@_0O@HKNK@POWER_ADJ_LOG?$AA@ 004302b8     ipclib:LoadEmsDefine.obj
 0002:000022c8       ??_C@_0P@JDHF@EVENT_FILE_LOG?$AA@ 004302c8     ipclib:LoadEmsDefine.obj
 0002:000022d8       ??_C@_08FKAL@EMS_FLAG?$AA@ 004302d8     ipclib:LoadEmsDefine.obj
 0002:000022e4       ??_C@_0BJ@ODMJ@Unknown?5define?5in?5?$CFs?3?5?$CFs?$AA@ 004302e4     ipclib:LoadEmsDefine.obj
 0002:00002300       ??_C@_0BN@PJDN@Ctrl?5net?5num?5error?5in?5?$CFs?3?5?$CFs?$AA@ 00430300     ipclib:LoadEmsDefine.obj
 0002:00002320       ??_C@_0N@IEFO@CTRL_NET_NUM?$AA@ 00430320     ipclib:LoadEmsDefine.obj
 0002:00002330       ??_C@_0BM@BGFO@Sys?5net?5num?5error?5in?5?$CFs?3?5?$CFs?$AA@ 00430330     ipclib:LoadEmsDefine.obj
 0002:0000234c       ??_C@_0M@EKAC@SYS_NET_NUM?$AA@ 0043034c     ipclib:LoadEmsDefine.obj
 0002:00002358       ??_C@_0O@OPCC@EMS_PARAMETER?$AA@ 00430358     ipclib:LoadEmsDefine.obj
 0002:00002368       ??_C@_0CF@LPP@cascade?5station?5name?5error?5in?5?$CFs@ 00430368     ipclib:LoadEmsDefine.obj
 0002:00002390       ??_C@_07HJNK@CASCADE?$AA@  00430390     ipclib:LoadEmsDefine.obj
 0002:00002398       ??_C@_0CA@EOEI@Command?5host?5id?5error?5in?5?$CFs?3?5?$CFs?$AA@ 00430398     ipclib:LoadEmsDefine.obj
 0002:000023b8       ??_C@_0CD@DGFC@Too?5much?5cmd?5host?5define?5in?5?$CFs?3?5@ 004303b8     ipclib:LoadEmsDefine.obj
 0002:000023dc       ??_C@_08EKPM@CMD_HOST?$AA@ 004303dc     ipclib:LoadEmsDefine.obj
 0002:000023e8       ??_C@_08GOJC@PLC_MODE?$AA@ 004303e8     ipclib:LoadEmsDefine.obj
 0002:000023f4       ??_C@_0BK@JIEP@lcu?5ipaddr?5?$CFs?5error?5in?5?$CFs?$AA@ 004303f4     ipclib:LoadEmsDefine.obj
 0002:00002410       ??_C@_0BO@CDPP@Too?5much?5lcu?5ipaddr?5in?5?$CFs?3?5?$CFs?$AA@ 00430410     ipclib:LoadEmsDefine.obj
 0002:00002430       ??_C@_0BH@OHNC@Too?5much?5lcu?5in?5?$CFs?3?5?$CFs?$AA@ 00430430     ipclib:LoadEmsDefine.obj
 0002:00002448       ??_C@_0L@DLOK@LCU_IPADDR?$AA@ 00430448     ipclib:LoadEmsDefine.obj
 0002:00002454       ??_C@_0BL@IONO@No?5such?5group?5in?5?$CFs?3?5?$CFs?4?$CFs?$AA@ 00430454     ipclib:LoadEmsDefine.obj
 0002:00002470       ??_C@_0BH@IGMJ@Too?5much?5plc?5in?5?$CFs?3?5?$CFs?$AA@ 00430470     ipclib:LoadEmsDefine.obj
 0002:00002488       ??_C@_08PBCB@PLC_SCAN?$AA@ 00430488     ipclib:LoadEmsDefine.obj
 0002:00002494       ??_C@_0CL@CEOH@Pair?5hosts?5must?5be?5in?5same?5stati@ 00430494     ipclib:LoadEmsDefine.obj
 0002:000024c0       ??_C@_0BN@LOMP@Too?5much?5host?5pair?5in?5?$CFs?3?5?$CFs?$AA@ 004304c0     ipclib:LoadEmsDefine.obj
 0002:000024e0       ??_C@_0M@EOHO@HOST_SWITCH?$AA@ 004304e0     ipclib:LoadEmsDefine.obj
 0002:000024ec       ??_C@_0CM@DKLE@Host?5type?5must?5be?5UNIX?5or?5WINDOW@ 004304ec     ipclib:LoadEmsDefine.obj
 0002:00002518       ??_C@_0BM@IEGH@Too?5much?5rcp?5host?5in?5?$CFs?3?5?$CFs?$AA@ 00430518     ipclib:LoadEmsDefine.obj
 0002:00002534       ??_C@_0M@PCHC@REMOTE_COPY?$AA@ 00430534     ipclib:LoadEmsDefine.obj
 0002:00002540       ??_C@_0DM@EOL@Process?5name?5already?5is?5defined?5@ 00430540     ipclib:LoadEmsDefine.obj
 0002:0000257c       ??_C@_0CA@JILO@Process?5name?5too?5long?5in?5?$CFs?3?5?$CFs?$AA@ 0043057c     ipclib:LoadEmsDefine.obj
 0002:0000259c       ??_C@_0BN@NBLI@Too?5much?5processes?5in?5?$CFs?3?5?$CFs?$AA@ 0043059c     ipclib:LoadEmsDefine.obj
 0002:000025bc       ??_C@_0N@PFOM@HOST_PROCESS?$AA@ 004305bc     ipclib:LoadEmsDefine.obj
 0002:000025cc       ??_C@_0CD@PCPC@Base?5process?5name?5repeat?5in?5?$CFs?3?5@ 004305cc     ipclib:LoadEmsDefine.obj
 0002:000025f0       ??_C@_0CC@HDGJ@Too?5much?5base?5processes?5in?5?$CFs?3?5?$CF@ 004305f0     ipclib:LoadEmsDefine.obj
 0002:00002614       ??_C@_0CF@NICJ@Base?5process?5name?5too?5long?5in?5?$CFs@ 00430614     ipclib:LoadEmsDefine.obj
 0002:0000263c       ??_C@_0N@IMPJ@BASE_PROCESS?$AA@ 0043063c     ipclib:LoadEmsDefine.obj
 0002:0000264c       ??_C@_0BL@KAJN@host?5ipaddr?5?$CFs?5error?5in?5?$CFs?$AA@ 0043064c     ipclib:LoadEmsDefine.obj
 0002:00002668       ??_C@_0BP@LIJ@Too?5much?5host?5ipaddr?5in?5?$CFs?3?5?$CFs?$AA@ 00430668     ipclib:LoadEmsDefine.obj
 0002:00002688       ??_C@_0M@DAIO@HOST_IPADDR?$AA@ 00430688     ipclib:LoadEmsDefine.obj
 0002:00002694       ??_C@_0CA@GMOJ@broadcast?5ipaddr?5?$CFs?5error?5in?5?$CFs?$AA@ 00430694     ipclib:LoadEmsDefine.obj
 0002:000026b4       ??_C@_0CE@DJCC@Too?5much?5broadcast?5ipaddr?5in?5?$CFs?3@ 004306b4     ipclib:LoadEmsDefine.obj
 0002:000026d8       ??_C@_0BL@ELEG@IP?5addr?5too?5long?5in?5?$CFs?3?5?$CFs?$AA@ 004306d8     ipclib:LoadEmsDefine.obj
 0002:000026f4       ??_C@_09NCBP@BROADCAST?$AA@ 004306f4     ipclib:LoadEmsDefine.obj
 0002:00002700       ??_C@_0BH@OINJ@No?5such?5host?5in?5?$CFs?3?5?$CFs?$AA@ 00430700     ipclib:LoadEmsDefine.obj
 0002:00002718       ??_C@_0BN@BMPJ@Role?5name?5too?5long?5in?5?$CFs?3?5?$CFs?$AA@ 00430718     ipclib:LoadEmsDefine.obj
 0002:00002738       ??_C@_0BI@DBKK@Too?5much?5host?5in?5?$CFs?3?5?$CFs?$AA@ 00430738     ipclib:LoadEmsDefine.obj
 0002:00002750       ??_C@_0BI@IEIP@Too?5much?5role?5in?5?$CFs?3?5?$CFs?$AA@ 00430750     ipclib:LoadEmsDefine.obj
 0002:00002768       ??_C@_09DKK@HOST_ROLE?$AA@ 00430768     ipclib:LoadEmsDefine.obj
 0002:00002774       ??_C@_0BO@CHDJ@Windows?5host?5need?5disk?5define?$AA@ 00430774     ipclib:LoadEmsDefine.obj
 0002:00002794       ??_C@_0BM@EAPJ@Unknown?5host?5type?5in?5?$CFs?3?5?$CFs?$AA@ 00430794     ipclib:LoadEmsDefine.obj
 0002:000027b0       ??_C@_09FFIE@COLOR_PRT?$AA@ 004307b0     ipclib:LoadEmsDefine.obj
 0002:000027bc       ??_C@_0L@KAP@WIN_ISLAND?$AA@ 004307bc     ipclib:LoadEmsDefine.obj
 0002:000027c8       ??_C@_06JDNA@ROUTER?$AA@   004307c8     ipclib:LoadEmsDefine.obj
 0002:000027d0       ??_C@_06DAOP@SWITCH?$AA@   004307d0     ipclib:LoadEmsDefine.obj
 0002:000027d8       ??_C@_07PHK@PRINTER?$AA@   004307d8     ipclib:LoadEmsDefine.obj
 0002:000027e0       ??_C@_07CFDA@WINDOWS?$AA@  004307e0     ipclib:LoadEmsDefine.obj
 0002:000027e8       ??_C@_04BJIF@UNIX?$AA@     004307e8     ipclib:LoadEmsDefine.obj
 0002:000027f0       ??_C@_0BM@PBOK@Must?5be?5YES?5or?5NO?5in?5?$CFs?3?5?$CFs?$AA@ 004307f0     ipclib:LoadEmsDefine.obj
 0002:0000280c       ??_C@_02MMJD@NO?$AA@       0043080c     ipclib:LoadEmsDefine.obj
 0002:00002810       ??_C@_03HDMP@YES?$AA@      00430810     ipclib:LoadEmsDefine.obj
 0002:00002814       ??_C@_0BK@JMP@No?5such?5station?5in?5?$CFs?3?5?$CFs?$AA@ 00430814     ipclib:LoadEmsDefine.obj
 0002:00002830       ??_C@_0CB@DEHD@Host?5longname?5too?5long?5in?5?$CFs?3?5?$CFs@ 00430830     ipclib:LoadEmsDefine.obj
 0002:00002854       ??_C@_0CE@FAOL@Host?5domain?5name?5too?5long?5in?5?$CFs?3@ 00430854     ipclib:LoadEmsDefine.obj
 0002:00002878       ??_C@_0BN@KOPK@Host?5name?5too?5long?5in?5?$CFs?3?5?$CFs?$AA@ 00430878     ipclib:LoadEmsDefine.obj
 0002:00002898       ??_C@_0BH@EBIO@Format?5error?5in?5?$CFs?3?5?$CFs?$AA@ 00430898     ipclib:LoadEmsDefine.obj
 0002:000028b0       ??_C@_0BI@MEOG@Fail?5to?5find?5?$CFs?5keyword?$AA@ 004308b0     ipclib:LoadEmsDefine.obj
 0002:000028c8       ??_C@_09IDDL@HOST_NAME?$AA@ 004308c8     ipclib:LoadEmsDefine.obj
 0002:000028d4       ??_C@_0BH@PNMC@Fail?5to?5initialize?5net?$AA@ 004308d4     ipclib:LoadEmsDefine.obj
 0002:000028ec       ??_C@_0BD@PPON@No?5host?5define?3?5?$CFs?$AA@ 004308ec     ipclib:LoadEmsDefine.obj
 0002:00002900       ??_C@_0BG@EEAK@Fail?5to?5get?5host?5name?$AA@ 00430900     ipclib:LoadEmsDefine.obj
 0002:00002918       ??_C@_0BE@KOPP@No?5such?5host?5id?3?5?$CFd?$AA@ 00430918     ipclib:LoadEmsDefine.obj
 0002:0000292c       ??_C@_0CG@BLLD@No?5such?5netNo?5define?5in?5BROADCAS@ 0043092c     ipclib:LoadEmsDefine.obj
 0002:00002954       ??_C@_0BO@ONGK@BROADCAST?5netNo?5overrange?3?5?$CFd?$AA@ 00430954     ipclib:LoadEmsDefine.obj
 0002:00002974       ??_C@_0BB@GBPB@No?5such?5host?3?5?$CFs?$AA@ 00430974     ipclib:LoadEmsDefine.obj
 0002:00002988       ??_C@_0BP@HCLO@No?5such?5netNo?5define?5in?5?$CFs?3?5?$CFd?$AA@ 00430988     ipclib:LoadEmsDefine.obj
 0002:000029a8       ??_C@_0BE@IGIA@netNo?5overrange?3?5?$CFd?$AA@ 004309a8     ipclib:LoadEmsDefine.obj
 0002:000029bc       ??_C@_06BJID@SERVER?$AA@   004309bc     ipclib:LoadEmsDefine.obj
 0002:000029c4       ??_C@_08KEDP@OPERATOR?$AA@ 004309c4     ipclib:LoadEmsDefine.obj
 0002:000029d0       ??_C@_0BF@BKBB@Fail?5to?5find?5prvg?5?$CFs?$AA@ 004309d0     ipclib:LoadEmsDefine.obj
 0002:000029e8       ??_C@_0M@IMFP@ALM_PRINTER?$AA@ 004309e8     ipclib:LoadEmsDefine.obj
 0002:000029f4       ??_C@_0CM@HNJI@No?5such?5printerNo?5define?5in?5ALM_@ 004309f4     ipclib:LoadEmsDefine.obj
 0002:00002a20       ??_C@_0O@CLBF@HCOPY_PRINTER?$AA@ 00430a20     ipclib:LoadEmsDefine.obj
 0002:00002a30       ??_C@_0CO@FKNM@No?5such?5printerNo?5define?5in?5HCOP@ 00430a30     ipclib:LoadEmsDefine.obj
 0002:00002a60       ??_C@_0M@FCIH@RPT_PRINTER?$AA@ 00430a60     ipclib:LoadEmsDefine.obj
 0002:00002a6c       ??_C@_0CM@FKHJ@No?5such?5printerNo?5define?5in?5RPT_@ 00430a6c     ipclib:LoadEmsDefine.obj
 0002:00002a98       ??_C@_0BI@DEMI@No?5such?5host?5define?3?5?$CFs?$AA@ 00430a98     ipclib:LoadEmsDefine.obj
 0002:00002ab0       ??_C@_0CB@JNFE@No?5such?5process?5in?5?$CFs?3?5procNo?5?$CFd@ 00430ab0     ipclib:LoadEmsDefine.obj
 0002:00002ad4       ??_C@_0BM@MFHJ@No?5such?5rcp?5host?3?5hostNo?5?$CFd?$AA@ 00430ad4     ipclib:LoadEmsDefine.obj
 0002:00002af0       ??_C@_0BM@KIKM@Fail?5to?5get?5local?5host?5name?$AA@ 00430af0     ipclib:LoadEmsDefine.obj
 0002:00002b0c       ??_C@_0BP@CNK@No?5such?5time?5server?3?5hostNo?5?$CFd?$AA@ 00430b0c     ipclib:LoadEmsDefine.obj
 0002:00002b2c       ??_C@_0BP@PEJ@No?5such?5plc?5scan?5define?3?5?$CFd?9?$CFd?$AA@ 00430b2c     ipclib:LoadEmsDefine.obj
 0002:00002b4c       ??_C@_0CC@DINE@No?5such?5plc?5scan?5hostNo?3?5?$CFd?9?$CFd?5?$CF@ 00430b4c     ipclib:LoadEmsDefine.obj
 0002:00002b70       ??_C@_0CB@FKIG@No?5such?5lcu?5ipaddr?5define?3?5?$CFd?9?$CFd@ 00430b70     ipclib:LoadEmsDefine.obj
 0002:00002b94       ??_C@_0CG@LCI@No?5such?5netNo?5define?5in?5lcu?5?$CFd?9?$CF@ 00430b94     ipclib:LoadEmsDefine.obj
 0002:00002bbc       ??_C@_0BD@HFCB@No?5such?5lcu?3?5?$CFd?9?$CFd?$AA@ 00430bbc     ipclib:LoadEmsDefine.obj
 0002:00002bd0       ??_C@_0M@KIKD@WINDOWS_NHD?$AA@ 00430bd0     ipclib:LoadEmsDefine.obj
 0002:00002bdc       ??_C@_0BJ@HCG@Fail?5to?5find?5variable?5?$CFs?$AA@ 00430bdc     ipclib:LoadEmsDefine.obj
 0002:00002bf8       ??_C@_0BL@IBNK@Fail?5to?5find?5ems?5string?5?$CFs?$AA@ 00430bf8     ipclib:LoadEmsDefine.obj
 0002:00002c14       ??_C@_08MGOE@H9000ems?$AA@ 00430c14     ipclib:LoadEmsDefine.obj
 0002:00002c20       ??_C@_0N@CKDH@WIN_PASSWORD?$AA@ 00430c20     ipclib:LoadEmsDefine.obj
 0002:00002c30       ??_C@_0O@HDPG@UNIX_PASSWORD?$AA@ 00430c30     ipclib:LoadEmsDefine.obj
 0002:00002c40       ??_C@_0BJ@FOD@No?5host?5?$CFd?5cmd?5id?5define?$AA@ 00430c40     ipclib:LoadEmsDefine.obj
 0002:00002c5c       ??_C@_0BH@ODAI@Host?5name?5too?5long?3?5?$CFs?$AA@ 00430c5c     ipclib:LoadEmsDefine.obj
 0002:00002c74       ??_C@_05PCPK@_STAT?$AA@    00430c74     ipclib:LoadEmsDefine.obj
 0002:00002c7c       ??_C@_06DFN@?$CFs?$CFs?$CFc?$AA@ 00430c7c     ipclib:LoadEmsDefine.obj
 0002:00002c84       ??_C@_05LNKC@_SNET?$AA@    00430c84     ipclib:LoadEmsDefine.obj
 0002:00002c8c       ??_C@_0BF@OOHA@Sys?5net?5id?5error?3?5?$CFd?$AA@ 00430c8c     ipclib:LoadEmsDefine.obj
 0002:00002ca4       ??_C@_05OIID@_CNET?$AA@    00430ca4     ipclib:LoadEmsDefine.obj
 0002:00002cac       ??_C@_0BG@JBMN@Ctrl?5net?5id?5error?3?5?$CFd?$AA@ 00430cac     ipclib:LoadEmsDefine.obj
 0002:00002cc4       ??_C@_0BC@MHHF@imp_opt?5error?3?5?$CFd?$AA@ 00430cc4     ipclib:WritePoint.obj
 0002:00002cd8       ??_C@_0EM@MJMA@Fail?5to?5find?5pair?5pt?5?$CFd?4?$CFd?4?$CFd?4?$CFd@ 00430cd8     ipclib:WritePoint.obj
 0002:00002d24       ??_C@_0DB@DEPP@Curve?5point?5seg?5pos?5overrange?3?5o@ 00430d24     ipclib:WritePoint.obj
 0002:00002d58       ??_C@_06FIJO@?2?2?4?2?$CFs?$AA@ 00430d58     ipclib:mac.obj
 0002:00002d60       ??_C@_0M@OMHG@ServiceName?$AA@ 00430d60     ipclib:mac.obj
 0002:00002d6c       ??_C@_0DK@KPAC@SOFTWARE?2Microsoft?2Windows?5NT?2Cu@ 00430d6c     ipclib:mac.obj
 0002:00002da8       ??_C@_0DC@MDIH@cmd?4lib?5find?5net_cmd?8s?5stnid?5?$CFd?5@ 00430da8     cmdlib:CmdProcess.obj
 0002:00002ddc       ??_C@_0CG@MPNH@cmd_type?$DN?$CFd?5not?5processsed?5by?5cm@ 00430ddc     cmdlib:CmdProcess.obj
 0002:00002e04       ??_C@_0DL@FDAL@cmd?4lib?5find?5?5C_SIGNAL_RESET?5sta@ 00430e04     cmdlib:CmdProcess.obj
 0002:00002e40       ??_C@_0DH@DCCN@cmd?4lib?5find?5C_PLC_SWITCH?5status@ 00430e40     cmdlib:CmdProcess.obj
 0002:00002e78       ??_C@_0DL@HCGJ@cmd?4lib?5find?5C_LCU_PARAM?3?$CIhi_ran@ 00430e78     cmdlib:CmdProcess.obj
 0002:00002eb4       ??_C@_0EC@LDKG@?5cmd?4lib?5?5C_LCU_PARAM?5DBread?3?5No@ 00430eb4     cmdlib:CmdProcess.obj
 0002:00002ef8       ??_C@_0DI@OGKJ@cmd?4lib?5find?5?5C_LCU_PARAM?5status@ 00430ef8     cmdlib:CmdProcess.obj
 0002:00002f30       ??_C@_0CL@MFHD@cmd?4lib?5find?5C_DATA_POLLING?5db_t@ 00430f30     cmdlib:CmdProcess.obj
 0002:00002f5c       ??_C@_0DL@ODKO@cmd?4lib?5find?5C_ANA_FORCE?3?$CIhi_ran@ 00430f5c     cmdlib:CmdProcess.obj
 0002:00002f98       ??_C@_0EB@GCMO@cmd?4lib?5?5C_ANA_FORCE?5DBread?3?5No?5@ 00430f98     cmdlib:CmdProcess.obj
 0002:00002fdc       ??_C@_0DH@CFHB@cmd?4lib?5find?5C_ANA_FORCE?5status?$DN@ 00430fdc     cmdlib:CmdProcess.obj
 0002:00003014       ??_C@_0DJ@EMAB@cmd?4lib?5find?5C_ONOFF_FORCE?5statu@ 00431014     cmdlib:CmdProcess.obj
 0002:00003050       ??_C@_0EG@OCFI@cmd?4lib?5find?5?$CIC_VOLT_STEP?$HMC_SPEE@ 00431050     cmdlib:CmdProcess.obj
 0002:00003098       ??_C@_0EF@LFAF@cmd?4lib?5find?5?$CIC_VOLT_STEP?$HMC_SPEE@ 00431098     cmdlib:CmdProcess.obj
 0002:000030e0       ??_C@_0DM@PBJO@cmd?4lib?5find?5?$CIC_VOLT_STEP?$HMC_SPEE@ 004310e0     cmdlib:CmdProcess.obj
 0002:0000311c       ??_C@_0DH@PCCC@cmd?4lib?5find?5?5C_DEV_MODE?5status?$DN@ 0043111c     cmdlib:CmdProcess.obj
 0002:00003154       ??_C@_0DF@FKDI@cmd?4lib?5find?5C_DEV_MODE?5devno?$DN?$CFd@ 00431154     cmdlib:CmdProcess.obj
 0002:0000318c       ??_C@_0CM@KPBA@cmd?4lib?5find?5C_DEV_MODE?5ctrl_add@ 0043118c     cmdlib:CmdProcess.obj
 0002:000031b8       ??_C@_0DP@FKJO@cmd?4lib?5C_TRANS?5DBread?3?5No?5this?5@ 004311b8     cmdlib:CmdProcess.obj
 0002:000031f8       ??_C@_0CK@KCIM@cmd?4lib?5find?5this?5opr?5is?5not?5for@ 004311f8     cmdlib:CmdProcess.obj
 0002:00003224       ??_C@_0DE@CMLA@cmd?4lib?5find?5?5C_TRANS?5status?$DN?$CFd?5@ 00431224     cmdlib:CmdProcess.obj
 0002:00003258       ??_C@_0DC@OMC@cmd?4lib?5find?5C_TRANS?5devno?$DN?$CFd?5be@ 00431258     cmdlib:CmdProcess.obj
 0002:0000328c       ??_C@_0CJ@DBFJ@cmd?4lib?5find?5C_TRANS?5ctrl_addr?$DN?$CF@ 0043128c     cmdlib:CmdProcess.obj
 0002:000032b8       ??_C@_0DG@OCJB@cmd?4lib?5find?5C_GATE?3?$CIhi_range?9lo@ 004312b8     cmdlib:CmdProcess.obj
 0002:000032f0       ??_C@_0DP@GOKC@cmd?4lib?5C_GATE?5DBread?3?5No?5this?5p@ 004312f0     cmdlib:CmdProcess.obj
 0002:00003330       ??_C@_0CL@KHEC@cmd?4lib?5find?5this?5opr?5is?5not?5for@ 00431330     cmdlib:CmdProcess.obj
 0002:0000335c       ??_C@_0DC@CPIP@cmd?4lib?5find?5C_GATE?5status?$DN?$CFd?5be@ 0043135c     cmdlib:CmdProcess.obj
 0002:00003390       ??_C@_0DD@ENPL@cmd?4lib?5find?5C_DEVICE?5status?$DN?$CFd?5@ 00431390     cmdlib:CmdProcess.obj
 0002:000033c4       ??_C@_0DB@GEPD@cmd?4lib?5find?5C_RPOWER?5cmd?3?5data_@ 004313c4     cmdlib:CmdProcess.obj
 0002:000033f8       ??_C@_0DI@GJDM@cmd?4lib?5find?5C_RPOWER?3?$CIhi_range?9@ 004313f8     cmdlib:CmdProcess.obj
 0002:00003430       ??_C@_0EA@LKKB@cmd?4lib?5C_RPOWER?5DBread?3?5No?5this@ 00431430     cmdlib:CmdProcess.obj
 0002:00003470       ??_C@_0DF@LIJA@cmd?4lib?5find?5?5C_RPOWER?5status?$DN?$CFd@ 00431470     cmdlib:CmdProcess.obj
 0002:000034a8       ??_C@_0DE@HNIH@cmd?4lib?5find?5?5C_RPOWER?5devno?$DN?$CFd?5@ 004314a8     cmdlib:CmdProcess.obj
 0002:000034dc       ??_C@_0CK@JGIJ@cmd?4lib?5find?5C_RPOWER?5ctrl_addr?$DN@ 004314dc     cmdlib:CmdProcess.obj
 0002:00003508       ??_C@_0DB@MLCL@cmd?4lib?5find?5C_APOWER?5cmd?3?5data_@ 00431508     cmdlib:CmdProcess.obj
 0002:0000353c       ??_C@_0DI@OGED@cmd?4lib?5find?5C_APOWER?3?$CIhi_range?9@ 0043153c     cmdlib:CmdProcess.obj
 0002:00003574       ??_C@_0EE@IOAJ@?5cmd?4lib?5C_APOWER?5DBread?3?5No?5thi@ 00431574     cmdlib:CmdProcess.obj
 0002:000035b8       ??_C@_0DF@BOIB@cmd?4lib?5find?5?5C_APOWER?5status?$DN?$CFd@ 004315b8     cmdlib:CmdProcess.obj
 0002:000035f0       ??_C@_0DE@GMLG@cmd?4lib?5find?5?5C_APOWER?5devno?$DN?$CFd?5@ 004315f0     cmdlib:CmdProcess.obj
 0002:00003624       ??_C@_0CK@IEID@cmd?4lib?5find?5C_APOWER?5ctrl_addr?$DN@ 00431624     cmdlib:CmdProcess.obj
 0002:00003650       ??_C@_0DF@FJOB@cmd?4lib?5find?5?5C_SWITCH?5status?$DN?$CFd@ 00431650     cmdlib:CmdProcess.obj
 0002:00003688       ??_C@_0DD@EIFM@cmd?4lib?5find?5?5C_SWITCH?5devno?$DN?$CFd?5@ 00431688     cmdlib:CmdProcess.obj
 0002:000036bc       ??_C@_0DF@HKHD@cmd?4lib?5find?5C_BREAKER?5status?$DN?$CFd@ 004316bc     cmdlib:CmdProcess.obj
 0002:000036f4       ??_C@_0DL@BIDE@cmd?4lib?5find?5C_UNIT?5YG_GD?3?$CIhi_ra@ 004316f4     cmdlib:CmdProcess.obj
 0002:00003730       __real@8@3ff7a3d70a3d70a3d800 00431730     cmdlib:CmdProcess.obj
 0002:00003738       ??_C@_0DP@BFAK@?5cmd?4lib?5C_UNIT?5DBread?3?5No?5this?5@ 00431738     cmdlib:CmdProcess.obj
 0002:00003778       ??_C@_0DO@PEEJ@Cmd?4lib?3?5No?5YG_GD?5point?5of?5?$CFd?5lc@ 00431778     cmdlib:CmdProcess.obj
 0002:000037b8       ??_C@_05EKEN@YG_GD?$AA@    004317b8     cmdlib:CmdProcess.obj
 0002:000037c0       ??_C@_0DD@HJOI@cmd?4lib?5find?5?5C_UNIT?5status?$DN?$CFd?5b@ 004317c0     cmdlib:CmdProcess.obj
 0002:000037f4       ??_C@_0DB@IEEO@cmd?4lib?5find?5C_UNIT?5devno?$DN?$CFd?5bey@ 004317f4     cmdlib:CmdProcess.obj
 0002:00003828       ??_C@_0CI@JIAE@cmd?4lib?5find?5C_UNIT?5ctrl_addr?$DN?$CFd@ 00431828     cmdlib:CmdProcess.obj
 0002:00003850       ??_C@_0DH@HMOP@cmd?4lib?5find?5C_LCU_ONOFF?5status?$DN@ 00431850     cmdlib:CmdProcess.obj
 0002:00003888       ??_C@_04DOCJ@CMD?3?$AA@    00431888     cmdlib:CmdProcess.obj
 0002:00003890       __real@8@400c9c40000000000000 00431890     otsd:SimuEngine_util.obj
 0002:00003898       __real@8@4005c800000000000000 00431898     otsd:SimuEngine_util.obj
 0002:000038a0       __real@8@4002a000000000000000 004318a0     otsd:SimuEngine_util.obj
 0002:000038a8       ??_C@_0BH@IMDC@in?5DoDataCalculation?3?6?$AA@ 004318a8     otsd:SimuEngine_util.obj
 0002:000038c0       ??_C@_03HLG@ots?$AA@       004318c0     otsd:SimuEngine_util.obj
 0002:000038c8       __real@8@3feea7c5ac471b478800 004318c8     otsd:SimuEngine_util.obj
 0002:000038d0       ??_C@_0BG@IBND@?3?3?5Non?5numeric?5value?4?$AA@ 004318d0     otsd:SimuEngine_util.obj
 0002:000038e8       ??_C@_0L@FCCE@ANA?4YG_DST?$AA@ 004318e8     otsd:SimuEngine_util.obj
 0002:000038f4       ??_C@_0L@HEMJ@ANA?4YG_ORG?$AA@ 004318f4     otsd:SimuEngine_util.obj
 0002:00003900       ??_C@_09MBMI@ANA?4YG_MW?$AA@ 00431900     otsd:SimuEngine_util.obj
 0002:0000390c       ??_C@_0L@ICOF@ANA?4WG_DST?$AA@ 0043190c     otsd:SimuEngine_util.obj
 0002:00003918       ??_C@_0L@KEAI@ANA?4WG_ORG?$AA@ 00431918     otsd:SimuEngine_util.obj
 0002:00003924       ??_C@_0M@EPDL@ANA?4WG_MVAR?$AA@ 00431924     otsd:SimuEngine_util.obj
 0002:00003930       __real@4@3fff8000000000000000 00431930     otsd:SimuEngine_util.obj
 0002:00003934       __real@4@4001a000000000000000 00431934     otsd:SimuEngine_util.obj
 0002:00003938       __real@4@bfff8000000000000000 00431938     otsd:SimuEngine_util.obj
 0002:0000393c       ??_C@_0CF@PIKA@GetAnaPtEngLmtParaByNameStr?5?$CFs?5e@ 0043193c     otsd:SimuEngine_util.obj
 0002:00003964       ??_C@_0BN@DMBO@?$CF4d?9?$CF02d?9?$CF02d?5?$CF02d?3?$CF02d?3?$CF02d?$AA@ 00431964     otsd:ots_lib.obj
 0002:00003984       ??_C@_08EOPJ@HDBWRITE?$AA@ 00431984     otsd:ots_lib.obj
 0002:00003990       ??_C@_07GLI@ALLSEND?$AA@   00431990     otsd:ots_lib.obj
 0002:00003998       ??_C@_07FLPO@SIM_OPT?$AA@  00431998     otsd:ots_lib.obj
 0002:000039a0       ??_C@_09NALL@SIM_TRAIN?$AA@ 004319a0     otsd:ots_lib.obj
 0002:000039ac       ??_C@_03PHIM@VER?$AA@      004319ac     otsd:ots_lib.obj
 0002:000039b0       ??_C@_06EEH@TCHPIC?$AA@    004319b0     otsd:ots_lib.obj
 0002:000039b8       ??_C@_05ONNP@HDBIP?$AA@    004319b8     otsd:ots_lib.obj
 0002:000039c0       ??_C@_06GNE@HDBSID?$AA@    004319c0     otsd:ots_lib.obj
 0002:000039c8       ??_C@_07DBNK@HDBTYPE?$AA@  004319c8     otsd:ots_lib.obj
 0002:000039d0       ??_C@_0CC@LKKE@?1home?1ems?1h9000?1def?1otsconfig?4de@ 004319d0     otsd:ots_lib.obj
 0002:000039f4       ??_C@_0CG@EAKO@?1home?1ems?1h9000?1his?1trap?1yx_tabl@ 004319f4     otsd:ots_lib.obj
 0002:00003a1c       ??_C@_0CG@IDLM@?1home?1ems?1h9000?1his?1trap?1yc_tabl@ 00431a1c     otsd:ots_lib.obj
 0002:00003a44       ??_C@_0CG@GDLG@?1home?1ems?1h9000?1ots?1sequence_aut@ 00431a44     otsd:load_SimuEngine_rtdb.obj
 0002:00003a6c       ??_C@_0CG@LPJG@?1home?1ems?1h9000?1ots?1sequence_dbi@ 00431a6c     otsd:load_SimuEngine_rtdb.obj
 0002:00003a94       ??_C@_0CE@GOLN@?1home?1ems?1h9000?1ots?1sequence_id?4@ 00431a94     otsd:load_SimuEngine_rtdb.obj
 0002:00003ab8       ??_C@_0CJ@LLDP@?1home?1ems?1h9000?1his?1trap?1simulog@ 00431ab8     otsd:load_SimuEngine_rtdb.obj
 0002:00003ae4       ??_C@_0CA@OBMH@?1home?1ems?1h9000?1ots?1simulog?4dat?$AA@ 00431ae4     otsd:load_SimuEngine_rtdb.obj
 0002:00003b04       ??_C@_0BK@PONN@sequence_auto?4txt?5error?$CB?6?$AA@ 00431b04     otsd:load_SimuEngine_rtdb.obj
 0002:00003b20       ??_C@_0BK@EIJF@sequence_dbin?4txt?5error?$CB?6?$AA@ 00431b20     otsd:load_SimuEngine_rtdb.obj
 0002:00003b3c       ??_C@_0BI@EPKN@sequence_id?4txt?5error?$CB?6?$AA@ 00431b3c     otsd:load_SimuEngine_rtdb.obj
 0002:00003b54       ??_C@_0BG@EIK@SimulogDataLoad?5OK?$CB?6?6?$AA@ 00431b54     otsd:load_SimuEngine_rtdb.obj
 0002:00003b6c       ??_C@_0GK@OMPL@in?5?3?5n_sequence?3?5?$CFd?0?5n_step?3?5?$CFd?0@ 00431b6c     otsd:load_SimuEngine_rtdb.obj
 0002:00003bd8       ??_C@_0CN@IHLE@SimulogDataLoad?3?5file?5?$CFs?5timerdb@ 00431bd8     otsd:load_SimuEngine_rtdb.obj
 0002:00003c08       ??_C@_0CM@BOMO@SimulogDataLoad?3?5file?5?$CFs?5unitdb?5@ 00431c08     otsd:load_SimuEngine_rtdb.obj
 0002:00003c34       ??_C@_0CB@CKFI@SimulogDataLoad?3?5Read?5nlf?5F?5ok?4?6@ 00431c34     otsd:load_SimuEngine_rtdb.obj
 0002:00003c58       ??_C@_0CP@FKMC@SimulogDataLoad?3?5file?5?$CFs?5nlfdata@ 00431c58     otsd:load_SimuEngine_rtdb.obj
 0002:00003c88       ??_C@_0CB@DFDL@SimulogDataLoad?3?5Read?5nlf?5Y?5ok?4?6@ 00431c88     otsd:load_SimuEngine_rtdb.obj
 0002:00003cac       ??_C@_0CP@HBHC@SimulogDataLoad?3?5file?5?$CFs?5nlfdata@ 00431cac     otsd:load_SimuEngine_rtdb.obj
 0002:00003cdc       ??_C@_0CB@KAJL@SimulogDataLoad?3?5Read?5nlf?5X?5ok?4?6@ 00431cdc     otsd:load_SimuEngine_rtdb.obj
 0002:00003d00       ??_C@_0CP@CABP@SimulogDataLoad?3?5file?5?$CFs?5nlfdata@ 00431d00     otsd:load_SimuEngine_rtdb.obj
 0002:00003d30       ??_C@_0CJ@FCHD@n_nlf?$DN?5?$CFd?7x_end?$DN?5?$CFd?7y_end?$DN?5?$CFd?7f_@ 00431d30     otsd:load_SimuEngine_rtdb.obj
 0002:00003d5c       ??_C@_0CD@KPAN@SimulogDataLoad?3?5Read?5nlf_ptr?5ok@ 00431d5c     otsd:load_SimuEngine_rtdb.obj
 0002:00003d80       ??_C@_0CN@GKEB@SimulogDataLoad?3?5file?5?$CFs?5nlf_ptr@ 00431d80     otsd:load_SimuEngine_rtdb.obj
 0002:00003db0       ??_C@_0CB@NHOC@SimulogDataLoad?3?5Read?5nlfdb?5ok?4?6@ 00431db0     otsd:load_SimuEngine_rtdb.obj
 0002:00003dd4       ??_C@_0CL@PHMO@SimulogDataLoad?3?5file?5?$CFs?5nlfdb?5r@ 00431dd4     otsd:load_SimuEngine_rtdb.obj
 0002:00003e00       ??_C@_0CD@PEEK@SimulogDataLoad?3?5Read?5sparedb?5ok@ 00431e00     otsd:load_SimuEngine_rtdb.obj
 0002:00003e24       ??_C@_0CN@HHEA@SimulogDataLoad?3?5file?5?$CFs?5sparedb@ 00431e24     otsd:load_SimuEngine_rtdb.obj
 0002:00003e54       ??_C@_0CG@EPHE@SimulogDataLoad?3?5Read?5paramseqdb@ 00431e54     otsd:load_SimuEngine_rtdb.obj
 0002:00003e7c       ??_C@_0DA@KECK@SimulogDataLoad?3?5file?5?$CFs?5paramse@ 00431e7c     otsd:load_SimuEngine_rtdb.obj
 0002:00003eac       ??_C@_0CD@EPEK@SimulogDataLoad?3?5Read?5paramdb?5ok@ 00431eac     otsd:load_SimuEngine_rtdb.obj
 0002:00003ed0       ??_C@_0CN@KNJ@SimulogDataLoad?3?5file?5?$CFs?5paramdb@ 00431ed0     otsd:load_SimuEngine_rtdb.obj
 0002:00003f00       ??_C@_0CB@PMDL@SimulogDataLoad?3?5Read?5tfbdb?5ok?4?6@ 00431f00     otsd:load_SimuEngine_rtdb.obj
 0002:00003f24       ??_C@_0CL@LLIO@SimulogDataLoad?3?5file?5?$CFs?5tfbdb?5r@ 00431f24     otsd:load_SimuEngine_rtdb.obj
 0002:00003f50       ??_C@_0BP@GNFP@SimulogDataLoad?3?5Read?5mdb?5ok?4?6?$AA@ 00431f50     otsd:load_SimuEngine_rtdb.obj
 0002:00003f70       ??_C@_0CN@PBIA@SimulogDataLoad?3?5file?5?$CFs?5modeldb@ 00431f70     otsd:load_SimuEngine_rtdb.obj
 0002:00003fa0       ??_C@_0DA@BPKF@SimulogDataLoad?3?5file?5?$CFs?5scenese@ 00431fa0     otsd:load_SimuEngine_rtdb.obj
 0002:00003fd0       ??_C@_0CM@LJPN@SimulogDataLoad?3?5file?5?$CFs?5initdb?5@ 00431fd0     otsd:load_SimuEngine_rtdb.obj
 0002:00003ffc       ??_C@_0CD@GKPH@SimulogDataLoad?3?5Read?5entrydb?5ok@ 00431ffc     otsd:load_SimuEngine_rtdb.obj
 0002:00004020       ??_C@_0CN@ENIE@SimulogDataLoad?3?5file?5?$CFs?5entrydb@ 00432020     otsd:load_SimuEngine_rtdb.obj
 0002:00004050       ??_C@_0CN@NLAD@SimulogDataLoad?3?5file?5?$CFs?5groupdb@ 00432050     otsd:load_SimuEngine_rtdb.obj
 0002:00004080       ??_C@_0CM@NJFN@SimulogDataLoad?3?5file?5?$CFs?5showdb?5@ 00432080     otsd:load_SimuEngine_rtdb.obj
 0002:000040ac       ??_C@_0CM@OKDJ@SimulogDataLoad?3?5file?5?$CFs?5stepdb?5@ 004320ac     otsd:load_SimuEngine_rtdb.obj
 0002:000040d8       ??_C@_0CI@COFA@SimulogDataLoad?3?5?$CFs?5read?5scenedb@ 004320d8     otsd:load_SimuEngine_rtdb.obj
 0002:00004100       ??_C@_0CL@BBAH@SimulogDataLoad?3?5?$CFs?5read?5sequenc@ 00432100     otsd:load_SimuEngine_rtdb.obj
 0002:0000412c       ??_C@_0BH@PKCF@Timed?5PRC?5number?5?$DN?5?$CFd?6?$AA@ 0043212c     otsd:load_SimuEngine_rtdb.obj
 0002:00004144       ??_C@_0CN@FPND@SimulogDataLoad?3?5file?5?$CFs?5read?5n_@ 00432144     otsd:load_SimuEngine_rtdb.obj
 0002:00004174       ??_C@_0BF@LCFN@GenUnit?5number?5?$DN?5?$CFd?6?$AA@ 00432174     otsd:load_SimuEngine_rtdb.obj
 0002:0000418c       ??_C@_0CM@CJHA@SimulogDataLoad?3?5file?5?$CFs?5read?5n_@ 0043218c     otsd:load_SimuEngine_rtdb.obj
 0002:000041b8       ??_C@_0BH@CFCJ@NLF?5curve?5number?5?$DN?5?$CFd?6?$AA@ 004321b8     otsd:load_SimuEngine_rtdb.obj
 0002:000041d0       ??_C@_0CP@KCBK@SimulogDataLoad?3?5file?5?$CFs?5read?5n_@ 004321d0     otsd:load_SimuEngine_rtdb.obj
 0002:00004200       ??_C@_0BB@FCJK@NLF?5number?5?$DN?5?$CFd?6?$AA@ 00432200     otsd:load_SimuEngine_rtdb.obj
 0002:00004214       ??_C@_0CL@MENC@SimulogDataLoad?3?5file?5?$CFs?5read?5n_@ 00432214     otsd:load_SimuEngine_rtdb.obj
 0002:00004240       ??_C@_0BD@ODAC@spare?5number?5?$DN?5?$CFd?6?$AA@ 00432240     otsd:load_SimuEngine_rtdb.obj
 0002:00004254       ??_C@_0CN@BIAK@SimulogDataLoad?3?5file?5?$CFs?5read?5n_@ 00432254     otsd:load_SimuEngine_rtdb.obj
 0002:00004284       ??_C@_0BH@MPHO@param?5seq?5number?5?$DN?5?$CFd?6?$AA@ 00432284     otsd:load_SimuEngine_rtdb.obj
 0002:0000429c       ??_C@_0DB@IFJK@SimulogDataLoad?3?5file?5?$CFs?5read?5n_@ 0043229c     otsd:load_SimuEngine_rtdb.obj
 0002:000042d0       ??_C@_0BD@HKCA@param?5number?5?$DN?5?$CFd?6?$AA@ 004322d0     otsd:load_SimuEngine_rtdb.obj
 0002:000042e4       ??_C@_0CN@KDAK@SimulogDataLoad?3?5file?5?$CFs?5read?5n_@ 004322e4     otsd:load_SimuEngine_rtdb.obj
 0002:00004314       ??_C@_0BB@HEFE@tfb?5number?5?$DN?5?$CFd?6?$AA@ 00432314     otsd:load_SimuEngine_rtdb.obj
 0002:00004328       ??_C@_0CL@OPAL@SimulogDataLoad?3?5file?5?$CFs?5read?5n_@ 00432328     otsd:load_SimuEngine_rtdb.obj
 0002:00004354       ??_C@_0BD@CDFI@model?5number?5?$DN?5?$CFd?6?$AA@ 00432354     otsd:load_SimuEngine_rtdb.obj
 0002:00004368       ??_C@_0CN@HOEP@SimulogDataLoad?3?5file?5?$CFs?5read?5n_@ 00432368     otsd:load_SimuEngine_rtdb.obj
 0002:00004398       ??_C@_0DA@IIKF@SimulogDataLoad?3?5file?5?$CFs?5read?5n_@ 00432398     otsd:load_SimuEngine_rtdb.obj
 0002:000043c8       ??_C@_0CM@HPMN@SimulogDataLoad?3?5file?5?$CFs?5read?5n_@ 004323c8     otsd:load_SimuEngine_rtdb.obj
 0002:000043f4       ??_C@_0BF@FOMD@n_entry?5number?5?$DN?5?$CFd?6?$AA@ 004323f4     otsd:load_SimuEngine_rtdb.obj
 0002:0000440c       ??_C@_0CN@IGLH@SimulogDataLoad?3?5file?5?$CFs?5read?5n_@ 0043240c     otsd:load_SimuEngine_rtdb.obj
 0002:0000443c       ??_C@_0BF@NJHN@n_group?5number?5?$DN?5?$CFd?6?$AA@ 0043243c     otsd:load_SimuEngine_rtdb.obj
 0002:00004454       ??_C@_0CN@FPAN@SimulogDataLoad?3?5file?5?$CFs?5read?5n_@ 00432454     otsd:load_SimuEngine_rtdb.obj
 0002:00004484       ??_C@_0CN@FLML@SimulogDataLoadc?3?5file?5?$CFs?5read?5n@ 00432484     otsd:load_SimuEngine_rtdb.obj
 0002:000044b4       ??_C@_0BE@PDAB@n_step?5number?5?$DN?5?$CFd?6?$AA@ 004324b4     otsd:load_SimuEngine_rtdb.obj
 0002:000044c8       ??_C@_0CN@IIOM@SimulogDataLoadc?3?5file?5?$CFs?5read?5n@ 004324c8     otsd:load_SimuEngine_rtdb.obj
 0002:000044f8       ??_C@_0BD@PPA@scene?5number?5?$DN?5?$CFd?6?$AA@ 004324f8     otsd:load_SimuEngine_rtdb.obj
 0002:0000450c       ??_C@_0CN@IPIM@SimulogDataLoad?3?5file?5?$CFs?5read?5n_@ 0043250c     otsd:load_SimuEngine_rtdb.obj
 0002:0000453c       ??_C@_0BB@DDBM@seq?5number?5?$DN?5?$CFd?6?$AA@ 0043253c     otsd:load_SimuEngine_rtdb.obj
 0002:00004550       ??_C@_0DA@DCPI@SimulogDataLoad?3?5file?5?$CFs?5read?5n_@ 00432550     otsd:load_SimuEngine_rtdb.obj
 0002:00004580       ??_C@_0CN@GFDB@SimulogDataLoad?3can?8t?5open?$CIwb?$CJ?5t@ 00432580     otsd:load_SimuEngine_rtdb.obj
 0002:000045b0       ??_C@_02JKAF@rb?$AA@       004325b0     otsd:load_SimuEngine_rtdb.obj
 0002:000045b4       ??_C@_0CM@GKOK@SimulogDataLoad?3can?8t?5open?$CIw?$CJ?5th@ 004325b4     otsd:load_SimuEngine_rtdb.obj
 0002:000045e0       ??_C@_01LLF@w?$AA@         004325e0     otsd:load_SimuEngine_rtdb.obj
 0002:000045e4       ??_C@_06PLMF@?$CFs__?$CFs?$AA@ 004325e4     otsd:load_SimuEngine_rtdb.obj
 0002:000045ec       ??_C@_0DK@EAHO@SimulogDataLoad?3?5can?8t?5find?5temp@ 004325ec     otsd:load_SimuEngine_rtdb.obj
 0002:00004628       ??_C@_0N@DEBK@FROMTEMPLATE?$AA@ 00432628     otsd:load_SimuEngine_rtdb.obj
 0002:00004638       ??_C@_05BKBC@?$CFs?7?$CFs?$AA@ 00432638     otsd:load_SimuEngine_rtdb.obj
 0002:00004640       ??_C@_01PIHH@?$CB?$AA@     00432640     otsd:load_SimuEngine_rtdb.obj
 0002:00004644       ??_C@_0BF@BIDD@This?5is?5a?5Null?5line?$CB?$AA@ 00432644     otsd:load_SimuEngine_rtdb.obj
 0002:0000465c       ??_C@_08KCMN@?$CFs?7?$CFs?7?$CFs?$AA@ 0043265c     otsd:load_SimuEngine_rtdb.obj
 0003:00000000       ___xc_a                    00433000     MSVCRTD:cinitexe.obj
 0003:00000004       ___xc_z                    00433004     MSVCRTD:cinitexe.obj
 0003:00000008       ___xi_a                    00433008     MSVCRTD:cinitexe.obj
 0003:0000000c       ___xi_z                    0043300c     MSVCRTD:cinitexe.obj
 0003:00000250       _FirstCmd                  00433250     read_recv_buf.obj
 0003:00000564       _g_ctrl_dualnet            00433564     lan:lanlib.obj
 0003:00000568       _g_sys_dualnet             00433568     lan:lanlib.obj
 0003:0000056c       _g_stnid                   0043356c     lan:lanlib.obj
 0003:00000e14       _db_ptr                    00433e14     ipclib:MountDB.obj
 0003:00001418       _genfile                   00434418     otsd:load_SimuEngine_rtdb.obj
 0003:0000141c       _listfile                  0043441c     otsd:load_SimuEngine_rtdb.obj
 0003:00001420       _seqid_file                00434420     otsd:load_SimuEngine_rtdb.obj
 0003:00001424       _seqdbin_file              00434424     otsd:load_SimuEngine_rtdb.obj
 0003:00001428       _seqauto_file              00434428     otsd:load_SimuEngine_rtdb.obj
 0003:00001430       ___defaultmatherr          00434430     MSVCRTD:merr.obj
 0003:00001488       _first_time_run            00434488     SimuEngine.obj
 0003:0000148c       _app_id                    0043448c     lan:lanlib.obj
 0003:00001490       _g_cascade                 00434490     lan:lanlib.obj
 0003:0002f044       __dowildcard               00462044     MSVCRTD:wildcard.obj
 0003:0002f048       __newmode                  00462048     MSVCRTD:_newmode.obj
 0003:0002f04c       __commode                  0046204c     MSVCRTD:xncommod.obj
 0003:0002f050       __fmode                    00462050     MSVCRTD:xtxtmode.obj
 0003:0002f060       _log_str                   00462060     <common>
 0003:0002f0e0       _ots_netcmd_ptr            004620e0     <common>
 0003:0002f0e4       _fspeed                    004620e4     <common>
 0003:0002f0e8       _chg_any                   004620e8     <common>
 0003:0002f0ec       _wait_thrid                004620ec     <common>
 0003:0002f100       _wsaData                   00462100     <common>
 0003:0002f290       _threadseq_logical         00462290     <common>
 0003:0002f2a0       _dms_rec                   004622a0     <common>
 0003:0002f818       _threadseq                 00462818     <common>
 0003:0002f81c       _threadmdl                 0046281c     <common>
 0003:0002f820       _stop_sequence             00462820     <common>
 0003:0002f824       _cur_seq_id                00462824     <common>
 0003:0002f828       _fz_style                  00462828     <common>
 0003:0002f82c       _cur_seq_time              0046282c     <common>
 0003:0002f830       _runflag                   00462830     <common>
 0003:0002f834       _pCurve                    00462834     <common>
 0003:0002f838       _cur_seq_step              00462838     <common>
 0003:0002f83c       _g_ctrl_netnum             0046283c     <common>
 0003:0002f840       _data_log                  00462840     <common>
 0003:00575ec8       _g_ipaddone                009a8ec8     <common>
 0003:00575ecc       _shm_hdb_addr              009a8ecc     <common>
 0003:00575ee0       _data_rec                  009a8ee0     <common>
 0003:005df680       _net_cmd_addr              00a12680     <common>
 0003:005dffe4       _g_stn_num                 00a12fe4     <common>
 0003:005dffe8       _sem_recv_id               00a12fe8     <common>
 0003:005e0000       _g_plc_ip                  00a13000     <common>
 0003:005efe60       _g_hostname_mysql          00a22e60     <common>
 0003:005efe94       _shm_ots_addr              00a22e94     <common>
 0003:005efea0       _data_ots                  00a22ea0     <common>
 0003:00649340       _sem_send_id               00a7c340     <common>
 0003:00649344       _g_simumode                00a7c344     <common>
 0003:00649348       _g_ctrl_net_independ       00a7c348     <common>
 0003:00649350       _index_stn                 00a7c350     <common>
 0003:0064935c       _sem_plc_data_id           00a7c35c     <common>
 0003:00649360       _g_is_simuserver           00a7c360     <common>
 0003:00649380       _data_recv_addr            00a7c380     <common>
 0003:007646e0       _plc_data_addr             00b976e0     <common>
 0003:023a0f80       _g_plcscan_host_num        027d3f80     <common>
 0003:023a15e0       _name                      027d45e0     <common>
 0003:023a1600       _comm_cmd_addr             027d4600     <common>
 0003:023a7d4c       _g_sys_netnum              027dad4c     <common>
 0003:023a7d60       _ipcconf                   027dad60     <common>
 0003:023a9359       _g_localhost_id            027dc359     <common>
 0003:023a935c       _g_sync_time               027dc35c     <common>
 0003:023a9360       _sms_buf                   027dc360     <common>
 0003:023a9440       _segid                     027dc440     <common>
 0003:023a9770       _g_wroffset                027dc770     <common>
 0003:023a9780       _g_plc_ip_num              027dc780     <common>
 0003:023a9ddc       _sem_plc_net_id            027dcddc     <common>
 0003:023a9de0       _shm_plc_cmd               027dcde0     <common>
 0003:023a9de4       _g_wrcond                  027dcde4     <common>
 0003:023a9de8       _g_wranyhost               027dcde8     <common>
 0003:023a9df0       _id_stn                    027dcdf0     <common>
 0003:023a9e00       _g_hostname                027dce00     <common>
 0003:023a9e64       _shm_recv_addr             027dce64     <common>
 0003:023a9e68       _g_is_grp_brd              027dce68     <common>
 0003:023a9e6c       _g_is_island               027dce6c     <common>
 0003:023a9e80       _data_send_addr            027dce80     <common>
 0003:0247e4f4       _g_plc_mode                028b14f4     <common>
 0003:0247e500       _g_ots_hdb_ip              028b1500     <common>
 0003:0247e528       _g_updatefirst             028b1528     <common>
 0003:0247e52c       _shm_log_addr              028b152c     <common>
 0003:0247e530       _shm_comm_cmd              028b1530     <common>
 0003:0247e540       _g_brd_ip                  028b1540     <common>
 0003:0247e5e0       _shm_net_cmd               028b15e0     <common>
 0003:0247e5e4       _g_ipwithcpu               028b15e4     <common>
 0003:0247e600       _g_prog_name               028b1600     <common>
 0003:0247ede0       _plc_cmd_addr              028b1de0     <common>
 0003:0247f310       _g_sys_lcu                 028b2310     <common>
 0003:0247f31c       _g_loglevel                028b231c     <common>
 0003:0247f320       _shm_send_addr             028b2320     <common>
 0003:0247f324       _shm_plc_data              028b2324     <common>
 0003:0247f328       _sem_net_cmd_id            028b2328     <common>
 0003:0247f340       _g_plcscan_host            028b2340     <common>
 0003:025bd2c0       _g_dev_num                 029f02c0     <common>
 0003:025bd300       _g_mbpaddr                 029f0300     <common>
 0003:025bd364       _shm_rec_addr              029f0364     <common>
 0003:025bd368       _sem_plc_send_id           029f0368     <common>
 0003:025bd36c       _shm_plc_send              029f036c     <common>
 0003:025bd380       _g_cpu_net_mode            029f0380     <common>
 0003:025bd9e0       _plc_send_addr             029f09e0     <common>
 0003:025d17e0       _g_grp_brd_ip              02a047e0     <common>
 0003:025d1820       _g_sid                     02a04820     <common>
 0003:025d1860       _g_ws_host                 02a04860     <common>
 0003:025fde80       _data_hdb                  02a30e80     <common>
 0003:0754f540       _host_info                 07982540     <common>
 0003:0754f5a0       _host_license_valid        079825a0     <common>
 0003:0754f5a4       _QUANTUM_SOE_PT_NUM_IN_MODULE 079825a4     <common>
 0003:0754f5a6       _GE9070_SOE_PT_NUM_IN_MODULE 079825a6     <common>
 0003:0754f5c0       _semphore_set              079825c0     <common>
 0003:0754f600       _SIEMENS_SOE_PT_NUM_IN_MODULE 07982600     <common>
 0003:0754f602       _ABCONTROL_SOE_PT_NUM_IN_MODULE 07982602     <common>
 0003:0754f604       _GE9030_SOE_PT_NUM_IN_MODULE 07982604     <common>
 0003:0754f608       _fp_gen                    07982608     <common>
 0003:0754f60c       _fp_list                   0798260c     <common>
 0003:0754f610       _n_init                    07982610     <common>
 0003:0754f614       _next_step_mask            07982614     <common>
 0003:0754f620       _tch_bg_pic                07982620     <common>
 0003:0754f660       _seqid_auto                07982660     <common>
 0003:0768cc84       _g_hdb_write               07abfc84     <common>
 0003:0768cca0       _nlf_ptr                   07abfca0     <common>
 0003:076ee720       _g_ots_ver                 07b21720     <common>
 0003:076ee724       _n_param_seq               07b21724     <common>
 0003:076ee740       _mdb                       07b21740     <common>
 0003:07732d00       _paramdb                   07b65d00     <common>
 0003:0786b500       _nlfdata                   07c9e500     <common>
 0003:08010580       _groupdb                   08443580     <common>
 0003:0825a480       _scenesegdb                0868d480     <common>
 0003:08313d40       _paramseqdb                08746d40     <common>
 0003:0844c540       _ots_status                0887f540     <common>
 0003:0844c544       _n_nlf_crv                 0887f544     <common>
 0003:0844c548       _n_timer                   0887f548     <common>
 0003:0844c560       _timerdb                   0887f560     <common>
 0003:0845db80       _nlfdb                     08890b80     <common>
 0003:084b1b40       _n_spare                   088e4b40     <common>
 0003:084b1b60       _showdb                    088e4b60     <common>
 0003:09f03fe0       _entrydb                   0a336fe0     <common>
 0003:1a3f0de0       _seqid                     1a823de0     <common>
 0003:1a52e404       _n_sceneseg                1a961404     <common>
 0003:1a52e420       _tfbdb                     1a961420     <common>
 0003:1b2612a0       _n_group                   1b6942a0     <common>
 0003:1b2612a4       _n_scene                   1b6942a4     <common>
 0003:1b2612a8       _n_show                    1b6942a8     <common>
 0003:1b2612ac       _g_all_send                1b6942ac     <common>
 0003:1b2612b0       _time_cnt                  1b6942b0     <common>
 0003:1b2612c0       _g_ots_hdb_type            1b6942c0     <common>
 0003:1b2612cc       _n_nlf                     1b6942cc     <common>
 0003:1b2612e0       _scenedb                   1b6942e0     <common>
 0003:1b26a750       _g_ots_hdb_sid             1b69d750     <common>
 0003:1b26a75c       _n_step                    1b69d75c     <common>
 0003:1b26a760       _sequencedb                1b69d760     <common>
 0003:1b6277e0       _n_model                   1ba5a7e0     <common>
 0003:1b627800       _initdb                    1ba5a800     <common>
 0003:1b996680       _n_tfb                     1bdc9680     <common>
 0003:1b996684       _n_unit                    1bdc9684     <common>
 0003:1b9966a0       _unitdb                    1bdc96a0     <common>
 0003:1b998c20       _n_param                   1bdcbc20     <common>
 0003:1b998c24       _n_sequence                1bdcbc24     <common>
 0003:1b998c28       _n_entry                   1bdcbc28     <common>
 0003:1b998c2c       _nlf_rd_st                 1bdcbc2c     <common>
 0003:1b998c30       _n_nlf_data                1bdcbc30     <common>
 0003:1b998c40       _stepdb                    1bdcbc40     <common>
 0003:1c50a740       _sparedb                   1c93d740     <common>
 0003:1c558940       ___onexitend               1c98b940     <common>
 0003:1c558944       ___onexitbegin             1c98b944     <common>
 0003:1c558948       __adjust_fdiv              1c98b948     <common>
 0004:00000000       __IMPORT_DESCRIPTOR_KERNEL32 1c98c000     kernel32:KERNEL32.dll
 0004:00000014       __IMPORT_DESCRIPTOR_ADVAPI32 1c98c014     advapi32:ADVAPI32.dll
 0004:00000028       __IMPORT_DESCRIPTOR_MSVCRTD 1c98c028     MSVCRTD:MSVCRTD.dll
 0004:0000003c       __IMPORT_DESCRIPTOR_WSOCK32 1c98c03c     wsock32:WSOCK32.dll
 0004:00000050       __NULL_IMPORT_DESCRIPTOR   1c98c050     kernel32:KERNEL32.dll
 0004:000001c4       __imp__RegEnumKeyExA@32    1c98c1c4     advapi32:ADVAPI32.dll
 0004:000001c8       __imp__RegQueryValueExA@24 1c98c1c8     advapi32:ADVAPI32.dll
 0004:000001cc       __imp__RegCloseKey@4       1c98c1cc     advapi32:ADVAPI32.dll
 0004:000001d0       __imp__RegOpenKeyExA@20    1c98c1d0     advapi32:ADVAPI32.dll
 0004:000001d4       \177ADVAPI32_NULL_THUNK_DATA 1c98c1d4     advapi32:ADVAPI32.dll
 0004:000001d8       __imp__OpenFileMappingA@12 1c98c1d8     kernel32:KERNEL32.dll
 0004:000001dc       __imp__CreateFileMappingA@24 1c98c1dc     kernel32:KERNEL32.dll
 0004:000001e0       __imp__CloseHandle@4       1c98c1e0     kernel32:KERNEL32.dll
 0004:000001e4       __imp__UnmapViewOfFile@4   1c98c1e4     kernel32:KERNEL32.dll
 0004:000001e8       __imp__CreateSemaphoreA@16 1c98c1e8     kernel32:KERNEL32.dll
 0004:000001ec       __imp__OpenSemaphoreA@12   1c98c1ec     kernel32:KERNEL32.dll
 0004:000001f0       __imp__WaitForSingleObject@8 1c98c1f0     kernel32:KERNEL32.dll
 0004:000001f4       __imp__ReleaseSemaphore@12 1c98c1f4     kernel32:KERNEL32.dll
 0004:000001f8       __imp__CreateFileA@28      1c98c1f8     kernel32:KERNEL32.dll
 0004:000001fc       __imp__GetLastError@0      1c98c1fc     kernel32:KERNEL32.dll
 0004:00000200       __imp__ReleaseMutex@4      1c98c200     kernel32:KERNEL32.dll
 0004:00000204       __imp__ReadFile@20         1c98c204     kernel32:KERNEL32.dll
 0004:00000208       __imp__CreateProcessA@40   1c98c208     kernel32:KERNEL32.dll
 0004:0000020c       __imp__CreatePipe@16       1c98c20c     kernel32:KERNEL32.dll
 0004:00000210       __imp__GetStartupInfoA@4   1c98c210     kernel32:KERNEL32.dll
 0004:00000214       __imp__GetVersionExA@4     1c98c214     kernel32:KERNEL32.dll
 0004:00000218       __imp__GetFileSize@8       1c98c218     kernel32:KERNEL32.dll
 0004:0000021c       __imp__GetLocalTime@4      1c98c21c     kernel32:KERNEL32.dll
 0004:00000220       __imp__DeviceIoControl@32  1c98c220     kernel32:KERNEL32.dll
 0004:00000224       __imp__MapViewOfFile@20    1c98c224     kernel32:KERNEL32.dll
 0004:00000228       __imp__Sleep@4             1c98c228     kernel32:KERNEL32.dll
 0004:0000022c       __imp__Beep@8              1c98c22c     kernel32:KERNEL32.dll
 0004:00000230       __imp__CreateMutexA@12     1c98c230     kernel32:KERNEL32.dll
 0004:00000234       __imp__CreateThread@24     1c98c234     kernel32:KERNEL32.dll
 0004:00000238       \177KERNEL32_NULL_THUNK_DATA 1c98c238     kernel32:KERNEL32.dll
 0004:0000023c       __imp__strcat              1c98c23c     MSVCRTD:MSVCRTD.dll
 0004:00000240       __imp__strcpy              1c98c240     MSVCRTD:MSVCRTD.dll
 0004:00000244       __imp__printf              1c98c244     MSVCRTD:MSVCRTD.dll
 0004:00000248       __imp__sprintf             1c98c248     MSVCRTD:MSVCRTD.dll
 0004:0000024c       __imp__memset              1c98c24c     MSVCRTD:MSVCRTD.dll
 0004:00000250       __imp__memcpy              1c98c250     MSVCRTD:MSVCRTD.dll
 0004:00000254       __imp__localtime           1c98c254     MSVCRTD:MSVCRTD.dll
 0004:00000258       __imp__strcmp              1c98c258     MSVCRTD:MSVCRTD.dll
 0004:0000025c       __imp__fabs                1c98c25c     MSVCRTD:MSVCRTD.dll
 0004:00000260       __imp__cos                 1c98c260     MSVCRTD:MSVCRTD.dll
 0004:00000264       __imp__sin                 1c98c264     MSVCRTD:MSVCRTD.dll
 0004:00000268       __imp__exp                 1c98c268     MSVCRTD:MSVCRTD.dll
 0004:0000026c       __imp__sqrt                1c98c26c     MSVCRTD:MSVCRTD.dll
 0004:00000270       __imp__strstr              1c98c270     MSVCRTD:MSVCRTD.dll
 0004:00000274       __imp__atof                1c98c274     MSVCRTD:MSVCRTD.dll
 0004:00000278       __imp__exit                1c98c278     MSVCRTD:MSVCRTD.dll
 0004:0000027c       __imp__sscanf              1c98c27c     MSVCRTD:MSVCRTD.dll
 0004:00000280       __imp__fprintf             1c98c280     MSVCRTD:MSVCRTD.dll
 0004:00000284       __imp__strncmp             1c98c284     MSVCRTD:MSVCRTD.dll
 0004:00000288       __imp___ftol               1c98c288     MSVCRTD:MSVCRTD.dll
 0004:0000028c       __imp__fclose              1c98c28c     MSVCRTD:MSVCRTD.dll
 0004:00000290       __imp__free                1c98c290     MSVCRTD:MSVCRTD.dll
 0004:00000294       __imp__time                1c98c294     MSVCRTD:MSVCRTD.dll
 0004:00000298       __imp__fscanf              1c98c298     MSVCRTD:MSVCRTD.dll
 0004:0000029c       __imp__fopen               1c98c29c     MSVCRTD:MSVCRTD.dll
 0004:000002a0       __imp__strlen              1c98c2a0     MSVCRTD:MSVCRTD.dll
 0004:000002a4       __imp__fgets               1c98c2a4     MSVCRTD:MSVCRTD.dll
 0004:000002a8       __imp___chkesp             1c98c2a8     MSVCRTD:MSVCRTD.dll
 0004:000002ac       __imp__strncpy             1c98c2ac     MSVCRTD:MSVCRTD.dll
 0004:000002b0       __imp__vsprintf            1c98c2b0     MSVCRTD:MSVCRTD.dll
 0004:000002b4       __imp__strrchr             1c98c2b4     MSVCRTD:MSVCRTD.dll
 0004:000002b8       __imp__mktime              1c98c2b8     MSVCRTD:MSVCRTD.dll
 0004:000002bc       __imp__rewind              1c98c2bc     MSVCRTD:MSVCRTD.dll
 0004:000002c0       __imp___pctype             1c98c2c0     MSVCRTD:MSVCRTD.dll
 0004:000002c4       __imp___isctype            1c98c2c4     MSVCRTD:MSVCRTD.dll
 0004:000002c8       __imp____mb_cur_max        1c98c2c8     MSVCRTD:MSVCRTD.dll
 0004:000002cc       __imp__abs                 1c98c2cc     MSVCRTD:MSVCRTD.dll
 0004:000002d0       __imp__fread               1c98c2d0     MSVCRTD:MSVCRTD.dll
 0004:000002d4       __imp___strupr             1c98c2d4     MSVCRTD:MSVCRTD.dll
 0004:000002d8       __imp___exit               1c98c2d8     MSVCRTD:MSVCRTD.dll
 0004:000002dc       __imp___XcptFilter         1c98c2dc     MSVCRTD:MSVCRTD.dll
 0004:000002e0       __imp____p___initenv       1c98c2e0     MSVCRTD:MSVCRTD.dll
 0004:000002e4       __imp____getmainargs       1c98c2e4     MSVCRTD:MSVCRTD.dll
 0004:000002e8       __imp___initterm           1c98c2e8     MSVCRTD:MSVCRTD.dll
 0004:000002ec       __imp____setusermatherr    1c98c2ec     MSVCRTD:MSVCRTD.dll
 0004:000002f0       __imp___adjust_fdiv        1c98c2f0     MSVCRTD:MSVCRTD.dll
 0004:000002f4       __imp____p__commode        1c98c2f4     MSVCRTD:MSVCRTD.dll
 0004:000002f8       __imp____p__fmode          1c98c2f8     MSVCRTD:MSVCRTD.dll
 0004:000002fc       __imp____set_app_type      1c98c2fc     MSVCRTD:MSVCRTD.dll
 0004:00000300       __imp___except_handler3    1c98c300     MSVCRTD:MSVCRTD.dll
 0004:00000304       __imp___controlfp          1c98c304     MSVCRTD:MSVCRTD.dll
 0004:00000308       __imp____dllonexit         1c98c308     MSVCRTD:MSVCRTD.dll
 0004:0000030c       __imp___onexit             1c98c30c     MSVCRTD:MSVCRTD.dll
 0004:00000310       \177MSVCRTD_NULL_THUNK_DATA 1c98c310     MSVCRTD:MSVCRTD.dll
 0004:00000314       __imp__WSAStartup@8        1c98c314     wsock32:WSOCK32.dll
 0004:00000318       __imp__inet_addr@4         1c98c318     wsock32:WSOCK32.dll
 0004:0000031c       __imp__gethostname@8       1c98c31c     wsock32:WSOCK32.dll
 0004:00000320       \177WSOCK32_NULL_THUNK_DATA 1c98c320     wsock32:WSOCK32.dll

 entry point at        0001:0002c590

 Static symbols

 0001:0000c6f0       _GetStnEntryPtrById        0040d6f0 f   ipclib:ReadDatabase.obj
 0001:0000dcb0       _GetRecPosition            0040ecb0 f   ipclib:ReadDatabase.obj
 0001:0000deb0       _GetRecPositionByOffset    0040eeb0 f   ipclib:ReadDatabase.obj
 0001:0000e0d0       _GetPtPosition             0040f0d0 f   ipclib:ReadDatabase.obj
 0001:0000e480       _GetEntryId                0040f480 f   ipclib:ReadDatabase.obj
 0001:0002c720       _$$$00001                  0042d720 f   MSVCRTD:chkstk.obj
 0001:0002c72c       probepages                 0042d72c f   MSVCRTD:chkstk.obj
 0001:0002c740       lastpage                   0042d740 f   MSVCRTD:chkstk.obj

FIXUPS: 2d828 ffffff76 fffffe68 1c f 3b 1f 27 ffffc80d 10 1c 2e 10 1c 18
FIXUPS: 29f97 20 3a 10 2e 10 1c 2e 10 1c 18 43 11 23 79 b 6 20 13 43 23
FIXUPS: 2a2b9 67 21 34cd ffffbf50 38 26 1a 10 39 3b 23 6b 8a 1b 1c 1f f7
FIXUPS: 29ade a 4f 1f 13 46 32 29 74 11 46 4d 5b 72 38 20 3a 10 1011 3f
FIXUPS: 2af1c 1a 16 12 95 20 24 29 2b 36 25 1b 92 20 24 29 2b 36 25 1b
FIXUPS: 29535 b 16 34 16 2a 40 16 2b d9 1003 11 14 2c 11 24 22 2a 11 2a
FIXUPS: 2a845 27 10 ac 1c 36 41 1f f 77 21 9e 33 23 35 8f 14 85 9d 14 ee
FIXUPS: 2ae99 2451 2d 2d 30 22 12 3e 49 15 ffffcfb6 16 24 10 5c 12 2b 15
FIXUPS: 2a554 2a 2a 16 30 1a 2c 11 14 2c 11 14 2c 11 14 2570 5b 2a 1c 3c
FIXUPS: 2cdbd 5c 2a 26 66 2d 2d 30 22 12 50 49 15 70 1c 23 2d 2d 30 22
FIXUPS: 2d1a8 40 c 3f 21 21 15 fffff04a a 1c a 1c 17 9e 19 db 39 36 5d
FIXUPS: 2c5e1 3d 4d 20 66 20 9b 67 136 59 2a 43 5b 2a 44 5b 2b 44 5c 2a
FIXUPS: 2be4b 25 1f 27 25 1f 2a 25 1f 27 25 1f 78 23 23 1f 23 23 1f 23
FIXUPS: 2c160 1f 2a 25 32 25 55 18 17 5 5 5 fffff6ad 23 25 22 23 25 2a
FIXUPS: 2ba66 2f 25 2f 25 32 25 2f 25 32 25 1f 27 25 2f 25 32 25 1f 2a
FIXUPS: 2bd94 1f 2a 25 1f fffff6c8 29 23 26 21 23 26 21 23 2a 22 2a 23
FIXUPS: 2b6c7 22 23 25 22 23 25 22 23 25 22 23 25 22 23 25 22 23 25 ffffd7d3
FIXUPS: 2912b 24 15 3c 5c f 19 5f f 19 3b f 19 2d f 19 16 1f68 2c 26 2b
FIXUPS: 2b388 23 25 22 23 25 22 23 25 22 ffffd4df 72 46 f 19 73 19 f 19
FIXUPS: 28b8c f 19 1d 24 15 24 15 3c 39 276 2b 46 f 19 52 19 f 19 53 f
FIXUPS: 290d5 1d fffff42a f 19 1d 24 15 24 15 3c 2a 3e f 19 49 f 19 4e
FIXUPS: 2876d 19 39 39 f 19 40 f 19 4e f 19 39 46 f fffff69d 49 23 f 19
FIXUPS: 28110 f 19 1d 24 15 24 15 3c 2a 3e f 19 46 f 19 4e f 19 79 f 19
FIXUPS: 28435 49 23 f 19 fffff646 4e f 19 6b 21 22 f 19 53 f 19 1d 24 15
FIXUPS: 27d50 15 3c 2f f 19 24 59 f 19 39 5f f 19 87 f 19 fffff69c f 19
FIXUPS: 27710 f 19 4e f 19 6b 21 23 f 19 53 f 19 1d 24 15 24 15 3c 2f f
FIXUPS: 27a22 24 39 f 19 40 f fffff6ab f 19 28 56 2d f 19 1e 26 f 19 53
FIXUPS: 2736a 19 2c 15 24 15 3c 5c 5c f 19 39 46 f 19 4e f 19 39 fffe94f9
FIXUPS: 10b92 24 2d 9c a7 a5 71e a5 a5 a8 a5 7e f 16 15631 13 15 5b 102
FIXUPS: 26fe8 19 38 1d 11 23 39 f 19 40 f 19 fffe83d0 4d 45 87 25 21 2b
FIXUPS: f8d6 71 24 2b 24 2e 9f ac ac af ac ac af ac 85 f 16 78 13e 3a f
FIXUPS: 10200 73 869 6b ffffe0c1 25 38 38 36 6b f dd 3b 38 36 6b f b3 35
FIXUPS: f06d 30 1e 48 6d f 3c 3c 24 35 30 39 139 20 f 16 bd ffffed0a f
FIXUPS: e2eb 35 16 2d 6b f 44 32 6b f 82 51 33 6b f 10d 16 33 6b f 105
FIXUPS: e938 2b 6b f 6e 87 17 89 17 ffffef75 f 60 15 31 6b f 60 15 31 6b
FIXUPS: dd4d 90 15 31 28 11 33 5d 39 f 16 39 6b f 35 15 2c 6b f 6e 38 fffff335
FIXUPS: d4f3 12 8a 38 96 f 16 2b 1e 12 a4 f 16 27 21 12 2d 21 12 3e 6d
FIXUPS: d944 f 16 34 2b 25 2b 25 2b 2b ba42 37 3b 35 f 32 54 f 15 42 30
FIXUPS: 196dc f 3d 5b f b1 7b 57 40 3f f 35 f 25 25 29 f 1a ffff39f3 12
FIXUPS: d4b6 bb81 35 f 25 51 f 15 2c 36 35 f 27 4f f 15 1d 15 30 35 f 18
FIXUPS: 19328 49 f 15 2a 38 35 f 25 51 f fffff6a5 15 57 f 15 1f 15 3e 35
FIXUPS: 18cab 1a 15 57 f 15 2c 36 35 f 27 4f f 15 2c 36 35 f 27 4f f 15
FIXUPS: 18fff fffff6f8 35 f 25 51 f 15 1f 15 3e 35 f 1a 15 57 f 15 1f 15
FIXUPS: 189a7 35 f 1a 15 57 f 15 1f 15 3e 35 f fffff5b6 f 18 22 cf 3e 38
FIXUPS: 1829e 1d cd 49 f 15 3a 38 35 f 35 51 f 15 1d 15 30 35 f 18 15 49
FIXUPS: 18680 15 2a fffff4c1 37 38 f ab 27 f 16 4c f 15 2f 33 35 f 2a 4c
FIXUPS: 17e90 15 2f 33 35 f 2a 4c f 15 2c 36 35 f 27 fffff347 15 7a f 18
FIXUPS: 17554 15 3e 61 f 9e 15 58 f 59 f 18 7d 15 4f f 18 61 f 79 15 8b
FIXUPS: 17a7a f ab 27 f fffff29b 2f 33 35 f 2a 4c f 15 1d 15 30 35 f 18
FIXUPS: 17018 49 f 15 2a 38 35 f 25 78 f 18 a9 15 3a 61 f fffff3f5 3e 3d
FIXUPS: 16828 f 39 78 f 15 3a 31 61 f 35 7c f 15 47 34 61 f 42 7f f 15
FIXUPS: 16cbc 3b 5e f 2b 52 f ffffee3f 1e 1e 1c f 16 55 f 18 10d 52 38
FIXUPS: 15ece 108 6b f 18 1f0 4f 38 f 1eb 8f f 15 42 39 61 f 3d 74 f fffff094
FIXUPS: 157f5 4c f 18 4d f 39 21 21 21 1f f 1f 21 1e 1e 1c f 16 3c 38 f
FIXUPS: 15b16 f 39 21 21 21 1f f 1f fffff699 46 54 f 15 2a 38 35 f 25 51
FIXUPS: 15490 15 2a 38 35 f 25 51 f 15 2a 38 35 f 25 51 f 15 2f 33 35 fffff4bc
FIXUPS: 14c87 15 42 39 61 f 3d 74 f 15 42 39 61 f 3d 74 f 15 1d 15 39 5e
FIXUPS: 150f4 18 15 77 f 15 4b 30 61 fffff330 f 15 30 3b 5e f 2b 79 f 15
FIXUPS: 147b6 31 5e f 25 7f f 15 3e 3d 61 f 39 78 f 15 42 39 61 f 3d fffff37d
FIXUPS: 13fb7 2a 36 2a 36 2a 36 2a 36 2a 36 2a 36 2a 36 2a 36 2a 36 2a
FIXUPS: 14377 2a 36 2a 36 2a 36 2a 36 2a 36 fffff42a 36 2a 36 2a 36 2a
FIXUPS: 13ad7 2a 36 2a 36 2a 36 2a 36 2a 36 2a 36 2a 36 2a 36 2a 36 2a
FIXUPS: 13e97 2a 36 2a 36 fffff3da 3c 34 3c 7b f 15 37 34 61 f 32 38 36
FIXUPS: 13621 36 2a 36 2a 36 2a 36 2a 36 2a 36 2a 36 2a 36 2a 36 fffff19a
FIXUPS: 12ba6 5b b6 5a 38 38 38 38 3c 34 3c 34 3c 34 3c 34 3c 34 3c 34
FIXUPS: 130cd 34 3c 34 3c 34 3c 34 3c 34 3c ffffeec4 1a 10 36 69 22 2d
FIXUPS: 12311 1a 10 36 1d 12 31 1d 12 31 5c 34 5c 34 125 6b 126 70 87 f
FIXUPS: 1294e 69 88 f 41 fffff159 1e 15 36 2a 36 2a 36 2a 36 2a 36 2c 34
FIXUPS: 11e5d 34 2c 34 2c 34 2a 36 2a 36 2c 34 2c 34 69 22 20 12 8447 13
FIXUPS: 1a624 21 13 ffff7239 1a 12 34 1d 12 31 1d 12 33 2a 21 1e 24 25
FIXUPS: 11a99 1e 19 1e 10 1e 15 36 21 1e 14 1e 84bc 54 24 57 46 12 49 16
FIXUPS: 1a240 13 33 10 35 15 3b 15 36 15 3b 15 3b 15 49 21 13 3c 21 13
FIXUPS: 1a544 21 13 3c ecc 13 13 f ffffe633 28 38 10 3e 2b 21 12 4b 19
FIXUPS: 19cb4 a 1b f 12 11 c 4f 87 23 12 4b 3c 12 bd 27 57 8c 1040 c 27
FIXUPS: 1b101 26 11 3b 28 1f 11 f a f 22 d 25 8 23 8 33 47 41 1d 13 21
FIXUPS: 1b399 23 13 21 52 13 13 fffff8a3 29 18 16 f 16 18 12 33 24 f 22
FIXUPS: 1ae5f 16 f 19 42 f 2d f 2f 2b f 1d f 15 3c c 27 c 26 11 fffff8ba
FIXUPS: 1a988 22 16 14 f 34 22 18 16 f 26 18 16 f 16 17 31 17 13 c 15 4f
FIXUPS: 1ac27 13 16 f 1e 34 1d 18 16 1380 f 20 28 f 16 17 21 f 16 e 1c
FIXUPS: 1c192 1e f 1e 44 1d ffffe44a 48 25 25 25 25 25 25 25 25 25 25 48
FIXUPS: 1a8af 1395 20 57 1e 37 1c 19 1a 13 11 20 22 14 1b 24 20 f 8 27
FIXUPS: 1beb9 13 13 48 13 13 44 13 13 34 13 13 4a fffff7af 2b 16 16 2f
FIXUPS: 1b8a3 18 1b 18 73 3a 12 26 14 21 20 52 16 19 20 15 16 16 16 16
FIXUPS: 1bb42 15 16 36 20 23 23 d2b 13 210 4f 31 ad 15 34 55 10 2b 38 10
FIXUPS: 1cdd6 18 13 35 18 13 9f 1f 19 2be ffffe313 12 3c a d 218 2c 19
FIXUPS: 1b7fb 8264 f 15 5d 20 1e f 16 ffff882f fd 1e 10d 12 75 f a6 f 3d
FIXUPS: 1c731 5e f 3f f 23 f 28 31 12 33 15 15 15 6cfd 2e 1c 10 34 1a 10
FIXUPS: 236f5 2d c 14 f 1c c 18 1d 3b 13 1f 3b 1c 10 34 1a 10 3d 1d 33
FIXUPS: 23982 19 38 5d fffff845 2e f 1c c 15 1d 2e 13 1f 35 1c 10 34 1a
FIXUPS: 2342b 34 e 11 10 1a 10 47 c 14 f 1c c 18 1d 3b 13 fffff844 10 10
FIXUPS: 22e57 1d 59 33 f 16 58 1d 1e f 16 44 16 39 1c 17 15 29 10 30 1a
FIXUPS: 2314b 34 e 11 10 10 92 f fffff38a 1e 18 19 15 b3 f 24 ad f 48 f
FIXUPS: 2286b 15 b0 f 24 48 f 91 f 42 f 25 15 29a e 10 10 1a 1d 2b fffff302
FIXUPS: 22148 e 17 3c 2e f 2d 35 e 17 3c 2e f 47 f 29 2b 15 78 c 1e 15
FIXUPS: 2248f e 14 36 1c 1d 1d 1c 84 fffff4f3 3a 4d 24 3a e 14 3d 4d 3d
FIXUPS: 21cad 16 58 29 61 36 f 28 1f 5a 29 61 36 f 28 1f 5a 29 61 36 f
FIXUPS: 220f2 fffff53c 4f c 24 15 46 c 25 c 1e 15 58 2b f 2e 43 f 41 2b
FIXUPS: 21905 35 f 28 15 29 e 13 3a 4d 24 34 e fffff728 16 34 e 11 10 10
FIXUPS: 212d0 2d f 16 5e 20 1e f 16 5d 20 1e f 16 2e 1a 1d 58 36 f 16 34
FIXUPS: 215fd 11 10 fffff808 20 f c 2a 1c 18 13 21 31 f c 41 f c 36 f c
FIXUPS: 21003 27 f c 17 27 f c 24 1d 20 15 8c 36 fffff914 f c 21 13 20
FIXUPS: 20b68 c 2a 1c 18 13 21 31 f c 41 f c 36 f c 17 27 f c 27 24 27
FIXUPS: 20dd9 c 2e fffff898 34 f c 2c f c 67 13 20 f c 20 1c 18 21 31 f
FIXUPS: 208b7 48 3e f c 1c 28 29 29 28 29 29 28 26 fffff89f 21 31 f c 2c
FIXUPS: 2041c f c 1c 14 13 20 f c 20 1c 18 13 21 31 f c 41 f c 1c 1d 34
FIXUPS: 20661 c 21 fffff906 c 2a 1c 18 13 21 31 f c 41 f c 33 f c 53 38
FIXUPS: 201c2 c 2d 34 f c 56 13 20 f c 20 1c 18 fffff8cb f c 2a 1c 18 13
FIXUPS: 1fcba 31 f c 41 f c 36 f c 1e 27 f c 25 2e f c 23 27 f c 6c 13
FIXUPS: 1ff85 fffff88e 18 13 21 31 f c 44 f c 38 f c 1e 27 f c 25 2e f
FIXUPS: 1fa2b 4e 31 f c 21 2e f c 3e 6d 13 fffff7ca 18 13 21 31 f c 44
FIXUPS: 1f4a2 c 38 f c 1e 27 f c 25 2e f c 94 42 f c 56 69 13 20 f c 2a
FIXUPS: 1efa8 18 13 21 31 f c 41 f c 33 f c 53 38 f c 6b 38 f c 4e f c
FIXUPS: 1f2de 1d 28 13 20 f c 2a fffff866 c 2a 1c 18 13 21 31 f c 41 f
FIXUPS: 1ed47 33 f c 53 38 f c 27 24 26 f c 27 26 13 20 f c 2a fffff7c0
FIXUPS: 1e75f 20 f c 20 1c 18 13 21 31 f c 4f f c 53 38 f c 5e 34 f c af
FIXUPS: 1eb0d f c 61 36 13 20 fffff78b f c 41 39 13 20 f c 2a 1c 18 13
FIXUPS: 1e4f2 31 f c 41 f c 3f 27 f c 33 f c 50 26 f c 2c fffff85a c 21
FIXUPS: 1dfdb f c 31 3b 13 20 f c 20 1c 18 13 21 31 f c 4f f c 53 38 f
FIXUPS: 1e294 4e 31 f c 21 fffff7aa 38 f c 17 27 f c 28 a3 42 f c 59 44
FIXUPS: 1dd7d 20 f c 2a 1c 18 13 21 31 f c 5c 31 f c 33 fffff7f8 1c 1c
FIXUPS: 1d7bd 1c 1c 18 18 26 f c 28 22 22 20 14 1a 48 13 20 f c 2a 1c 18
FIXUPS: 1da27 21 31 f c 4a f fffff913 2a 1c 18 13 21 31 f c 4a f c 17 27
FIXUPS: 1d590 c 17 27 f c 17 27 f c 1e 27 f c 33 2f 3e f 8fc4 1d bd 36
FIXUPS: 2684e be 35 38 38 29 37 38 38 29 ffff6785 c 18 1a 20 35 15 27 1b
FIXUPS: 1d33f e 19 21 f 1c 13 20 f 8b96 28 2f 64 2c 28 38 28 38 2a 36 2a
FIXUPS: 261f1 2a 36 2a 56 f 18 66 f b4 36 38 f 60 f a5 41 5c 32 6f ffffe621
FIXUPS: 24d20 1a 157 51 10 2f 386 2a 35d 45 38 36 3c 46 51 2d 55 67 1a
FIXUPS: 25928 29 59 63 63 fa 77 12b ae 6b 3c aa ead 1d 34 12 ffffcd5c 2e0
FIXUPS: 23e66 8e f 8e f 8e f 267 1da f 22 2c 165 f 27 f a6 f 163 f ed f
FIXUPS: 24b0a f 11d f fffe7391 18 18 18 41 16 27 3f 28 28 26 28 5b 58 49
FIXUPS: c2e3 20 1a84c 2b 34 3b 16 16 1a 12 5a 4a 33 3f 17 17 1d fffe4ea4
FIXUPS: bc72 1d 12 16 2e 1a 1c 12 c 4c 16 24 a 28 21 10 1b 10 18 10 18
FIXUPS: be9d 18 10 17 10 50 20 22 19 23 fffff7f2 16 20 3e 13 1b 4b 40 38
FIXUPS: b925 17 20 14 16 1c 31 13 1b 5a 63 20 14 1a 20 14 16 20 43 29 1a
FIXUPS: bc08 16 fffff7be 13 21 2b 10 1d 2c 1e 10 1a 29 38 f 13 21 28 10
FIXUPS: b5d2 29 32 f 13 21 28 10 1a 29 3f 20 14 1a 20 fffff862 14 1a 1d
FIXUPS: b059 16 2f 3c 20 14 1a 1d 14 16 2f 3c 20 14 1a 1d 14 16 2f 3c 20
FIXUPS: b30e 1a 1d 14 16 2f 2f fffff795 20 43 45 20 14 1a 1d 14 16 20 5b
FIXUPS: ad3a 14 1a 20 14 16 1c 32 13 1b 5c 40 20 14 1a 1d 14 16 20 5b fffff74b
FIXUPS: a76a 20 14 1a 1d 14 16 20 5b 20 14 1a 20 14 16 20 43 45 20 14 1a
FIXUPS: aa25 14 16 20 5b 20 14 1a 20 14 fffff735 1d 19 71 3b 20 16 34 f
FIXUPS: a3ef 21 2b 10 1a 37 31 f 13 21 2b 10 1a 37 50 3e 20 14 1a 20 14
FIXUPS: a6c2 20 ffffefb6 1d f 1d 67 2e 59 1a 3e 1e 40 4f 29 710 f 23 35
FIXUPS: a080 4f 12 16 2e 1d f 23 31 1d f 22 32 21 2b ffffed96 82 42 13
FIXUPS: 9131 21 48 f 23 43 12 54 37 13 39 41 15 38 cc 18 18 18 81 43 13
FIXUPS: 95a1 10 1d f 17 50 25 fffff1ca 67 43 29 9b 15 29 42 12 67 47 13
FIXUPS: 8b7a 4f 41 15 38 89 18 18 18 82 45 13 40 36 41 15 38 b9 18 18 fffff15c
FIXUPS: 8161 9c 24 f 23 44 12 55 36 13 38 12 6f b3 15 29 42 12 67 47 13
FIXUPS: 868c 37 32 32 f 23 57 c 4f 12 fffff49a 1d 14 1a 43 41 3c 43 20
FIXUPS: 7e5f 1b 17 11 10 11 10 16 4e 2e 20 37 1b 17 11 10 11 10 16 4e 72
FIXUPS: 8118 1d fffff7ea c 4b 57 20 20 19 23 1d 1f 14 14 1d 14 1d 14 1d
FIXUPS: 7b40 1d 14 1d 14 1d 14 1d 14 1d 1e 1d 14 1f 14 fffff437 f 40 46
FIXUPS: 7181 22 37 5d 31 73 8b 11 95 88 11 15 1c ac 6d 8f 11 15 1c d3 4e
FIXUPS: 77f4 a 40 24 12 24 3a 555d 37 2f 3e 37 2f 3b 7f 2f 3e 2c 2f 3e
FIXUPS: d126 2f 3b 50 2f 3b 66 2f 3b 46 2f 3b 5f 13 ffff9bf9 a 13 14 35
FIXUPS: c5dd 18 15 15 15 15 15 14 12 36 80 16 14 12 41 be 11 12 39 be 48
FIXUPS: ca19 12 49 24 34 105 14e 2f 3e 36 2f ffff4cf3 25 8e 13 25 8e 13
FIXUPS: 1c95 45 25 f a641 20 1d 16 16 13 13 18 e e 13 37 16 13 13 18 e
FIXUPS: c4c8 13 66 78 ffff4de7 d 7 14 f 14 12 2a 11 31 f a 11 31 13 89
FIXUPS: 15a6 3c 23 1d 47 22 1d 1a aa 14f 4a 40 b4 13 25 a0 25bd 2b 25 15
FIXUPS: 1eaa 21 72 21 18 21 fffff09b 10 26 16 49 19 19 2e 78 13 22 64 13
FIXUPS: 1263 13 1c f 53 32 1c 19 1a 226c 1a 39 19 39 5b 43 19 38 1b 1c
FIXUPS: 37e7 8c d3 12 11 12 14 372 25 68 d 130 17 24 1b 61 55 4f c c c
FIXUPS: 2843 12 69 31 12 1a 12 a8 8d 2f 2f 2f 2c 2c 2c c9 e e e e e 95
FIXUPS: 3142 8d 17 1c 17 264 e9 17 16 38 31e9 d 1e 45 16 21 28 31 57 20
FIXUPS: 697a 22 23 4d 48 141 101 56 47 14d 27 ffffd273 b0 12 50 ffffde35
FIXUPS: 2086 35 b0 310 b0 2d9 3832 160 1e 1e 4c 29 11 26 56 13 82 14 6
FIXUPS: 63ae 63 72 27 35 32 30 6 65 4a 29 8 6c 1b 7a 4b 1f 6 8 ffffef02
FIXUPS: 56f9 2e 15 3c 15 42 3d 15 28 129 10 4a 58 dc 23 3c d d e 73 22
FIXUPS: 5c33 51 25 10e 5e 38 2f 15c d 45 ffffedfe 1b 1f 1d 5e 4a 29 27
FIXUPS: 4fc5 62 24 27 38 30 53 33 4a 27 d9 6e 97 3f 42 49 30 44 61 19 25
FIXUPS: 55d0 30 51 ffffee23 3c 15 16 15 14 3c 15 16 15 e 1b0 25 2b 6b 23
FIXUPS: 4832 5c 25 19 1b a 49 25 91 22 79 15 188 2d 75 13a 20e0 41 c c
FIXUPS: 6fb7 e 1c 10 ffffd29e 8 7 12 a 5 f a 36 1b d a 5 b 17 3c d d 8
FIXUPS: 43cf 51 15 16 15
